
kernel.elf:     file format elf64-littleriscv


Disassembly of section .text:

0000000080000000 <_start>:

.section .text.start

.globl _start
_start:
    csrr   t0, mhartid
    80000000:	f14022f3          	csrr	t0,mhartid
    lui    t1, 0
    80000004:	00000337          	lui	t1,0x0
    beq    t0, t1, 2f
    80000008:	00628563          	beq	t0,t1,80000012 <_start+0x12>

1:  wfi
    8000000c:	10500073          	wfi
    j      1b
    80000010:	bff5                	j	8000000c <_start+0xc>

2:
    # initialize global pointer
    la gp, _gp
    80000012:	00001197          	auipc	gp,0x1
    80000016:	7ee18193          	addi	gp,gp,2030 # 80001800 <_gp>
  
    # initialize stack pointer
    la sp, stack_top
    8000001a:	00009117          	auipc	sp,0x9
    8000001e:	ff610113          	addi	sp,sp,-10 # 80009010 <end>
    call   start
    80000022:	68e000ef          	jal	800006b0 <start>
	...

0000000080000030 <kernelvec>:
.globl kerneltrap
.globl kernelvec
.align 4
kernelvec:
        # make room to save registers.
        addi sp, sp, -256
    80000030:	7111                	addi	sp,sp,-256

        # save the registers.
        sd ra, 0(sp)
    80000032:	e006                	sd	ra,0(sp)
        sd sp, 8(sp)
    80000034:	e40a                	sd	sp,8(sp)
        sd gp, 16(sp)
    80000036:	e80e                	sd	gp,16(sp)
        sd tp, 24(sp)
    80000038:	ec12                	sd	tp,24(sp)
        sd t0, 32(sp)
    8000003a:	f016                	sd	t0,32(sp)
        sd t1, 40(sp)
    8000003c:	f41a                	sd	t1,40(sp)
        sd t2, 48(sp)
    8000003e:	f81e                	sd	t2,48(sp)
        sd s0, 56(sp)
    80000040:	fc22                	sd	s0,56(sp)
        sd s1, 64(sp)
    80000042:	e0a6                	sd	s1,64(sp)
        sd a0, 72(sp)
    80000044:	e4aa                	sd	a0,72(sp)
        sd a1, 80(sp)
    80000046:	e8ae                	sd	a1,80(sp)
        sd a2, 88(sp)
    80000048:	ecb2                	sd	a2,88(sp)
        sd a3, 96(sp)
    8000004a:	f0b6                	sd	a3,96(sp)
        sd a4, 104(sp)
    8000004c:	f4ba                	sd	a4,104(sp)
        sd a5, 112(sp)
    8000004e:	f8be                	sd	a5,112(sp)
        sd a6, 120(sp)
    80000050:	fcc2                	sd	a6,120(sp)
        sd a7, 128(sp)
    80000052:	e146                	sd	a7,128(sp)
        sd s2, 136(sp)
    80000054:	e54a                	sd	s2,136(sp)
        sd s3, 144(sp)
    80000056:	e94e                	sd	s3,144(sp)
        sd s4, 152(sp)
    80000058:	ed52                	sd	s4,152(sp)
        sd s5, 160(sp)
    8000005a:	f156                	sd	s5,160(sp)
        sd s6, 168(sp)
    8000005c:	f55a                	sd	s6,168(sp)
        sd s7, 176(sp)
    8000005e:	f95e                	sd	s7,176(sp)
        sd s8, 184(sp)
    80000060:	fd62                	sd	s8,184(sp)
        sd s9, 192(sp)
    80000062:	e1e6                	sd	s9,192(sp)
        sd s10, 200(sp)
    80000064:	e5ea                	sd	s10,200(sp)
        sd s11, 208(sp)
    80000066:	e9ee                	sd	s11,208(sp)
        sd t3, 216(sp)
    80000068:	edf2                	sd	t3,216(sp)
        sd t4, 224(sp)
    8000006a:	f1f6                	sd	t4,224(sp)
        sd t5, 232(sp)
    8000006c:	f5fa                	sd	t5,232(sp)
        sd t6, 240(sp)
    8000006e:	f9fe                	sd	t6,240(sp)

	# call the C trap handler in trap.c
        # call kerneltrap

        # restore registers.
        ld ra, 0(sp)
    80000070:	6082                	ld	ra,0(sp)
        ld sp, 8(sp)
    80000072:	6122                	ld	sp,8(sp)
        ld gp, 16(sp)
    80000074:	61c2                	ld	gp,16(sp)
        # not this, in case we moved CPUs: ld tp, 24(sp)
        ld t0, 32(sp)
    80000076:	7282                	ld	t0,32(sp)
        ld t1, 40(sp)
    80000078:	7322                	ld	t1,40(sp)
        ld t2, 48(sp)
    8000007a:	73c2                	ld	t2,48(sp)
        ld s0, 56(sp)
    8000007c:	7462                	ld	s0,56(sp)
        ld s1, 64(sp)
    8000007e:	6486                	ld	s1,64(sp)
        ld a0, 72(sp)
    80000080:	6526                	ld	a0,72(sp)
        ld a1, 80(sp)
    80000082:	65c6                	ld	a1,80(sp)
        ld a2, 88(sp)
    80000084:	6666                	ld	a2,88(sp)
        ld a3, 96(sp)
    80000086:	7686                	ld	a3,96(sp)
        ld a4, 104(sp)
    80000088:	7726                	ld	a4,104(sp)
        ld a5, 112(sp)
    8000008a:	77c6                	ld	a5,112(sp)
        ld a6, 120(sp)
    8000008c:	7866                	ld	a6,120(sp)
        ld a7, 128(sp)
    8000008e:	688a                	ld	a7,128(sp)
        ld s2, 136(sp)
    80000090:	692a                	ld	s2,136(sp)
        ld s3, 144(sp)
    80000092:	69ca                	ld	s3,144(sp)
        ld s4, 152(sp)
    80000094:	6a6a                	ld	s4,152(sp)
        ld s5, 160(sp)
    80000096:	7a8a                	ld	s5,160(sp)
        ld s6, 168(sp)
    80000098:	7b2a                	ld	s6,168(sp)
        ld s7, 176(sp)
    8000009a:	7bca                	ld	s7,176(sp)
        ld s8, 184(sp)
    8000009c:	7c6a                	ld	s8,184(sp)
        ld s9, 192(sp)
    8000009e:	6c8e                	ld	s9,192(sp)
        ld s10, 200(sp)
    800000a0:	6d2e                	ld	s10,200(sp)
        ld s11, 208(sp)
    800000a2:	6dce                	ld	s11,208(sp)
        ld t3, 216(sp)
    800000a4:	6e6e                	ld	t3,216(sp)
        ld t4, 224(sp)
    800000a6:	7e8e                	ld	t4,224(sp)
        ld t5, 232(sp)
    800000a8:	7f2e                	ld	t5,232(sp)
        ld t6, 240(sp)
    800000aa:	7fce                	ld	t6,240(sp)

        addi sp, sp, 256
    800000ac:	6111                	addi	sp,sp,256

        # return to whatever we were doing in the kernel.
        sret
    800000ae:	10200073          	sret
    800000b2:	0001                	nop
    800000b4:	00000013          	nop
    800000b8:	00000013          	nop
    800000bc:	00000013          	nop

00000000800000c0 <trap_entry>:

.globl trap_entry
.align 4
trap_entry:
        # make room to save registers.
        addi sp, sp, -256
    800000c0:	7111                	addi	sp,sp,-256

        # save the registers.
        sd ra, 0(sp)
    800000c2:	e006                	sd	ra,0(sp)
        sd sp, 8(sp)
    800000c4:	e40a                	sd	sp,8(sp)
        sd gp, 16(sp)
    800000c6:	e80e                	sd	gp,16(sp)
        sd tp, 24(sp)
    800000c8:	ec12                	sd	tp,24(sp)
        sd t0, 32(sp)
    800000ca:	f016                	sd	t0,32(sp)
        sd t1, 40(sp)
    800000cc:	f41a                	sd	t1,40(sp)
        sd t2, 48(sp)
    800000ce:	f81e                	sd	t2,48(sp)
        sd s0, 56(sp)
    800000d0:	fc22                	sd	s0,56(sp)
        sd s1, 64(sp)
    800000d2:	e0a6                	sd	s1,64(sp)
        sd a0, 72(sp)
    800000d4:	e4aa                	sd	a0,72(sp)
        sd a1, 80(sp)
    800000d6:	e8ae                	sd	a1,80(sp)
        sd a2, 88(sp)
    800000d8:	ecb2                	sd	a2,88(sp)
        sd a3, 96(sp)
    800000da:	f0b6                	sd	a3,96(sp)
        sd a4, 104(sp)
    800000dc:	f4ba                	sd	a4,104(sp)
        sd a5, 112(sp)
    800000de:	f8be                	sd	a5,112(sp)
        sd a6, 120(sp)
    800000e0:	fcc2                	sd	a6,120(sp)
        sd a7, 128(sp)
    800000e2:	e146                	sd	a7,128(sp)
        sd s2, 136(sp)
    800000e4:	e54a                	sd	s2,136(sp)
        sd s3, 144(sp)
    800000e6:	e94e                	sd	s3,144(sp)
        sd s4, 152(sp)
    800000e8:	ed52                	sd	s4,152(sp)
        sd s5, 160(sp)
    800000ea:	f156                	sd	s5,160(sp)
        sd s6, 168(sp)
    800000ec:	f55a                	sd	s6,168(sp)
        sd s7, 176(sp)
    800000ee:	f95e                	sd	s7,176(sp)
        sd s8, 184(sp)
    800000f0:	fd62                	sd	s8,184(sp)
        sd s9, 192(sp)
    800000f2:	e1e6                	sd	s9,192(sp)
        sd s10, 200(sp)
    800000f4:	e5ea                	sd	s10,200(sp)
        sd s11, 208(sp)
    800000f6:	e9ee                	sd	s11,208(sp)
        sd t3, 216(sp)
    800000f8:	edf2                	sd	t3,216(sp)
        sd t4, 224(sp)
    800000fa:	f1f6                	sd	t4,224(sp)
        sd t5, 232(sp)
    800000fc:	f5fa                	sd	t5,232(sp)
        sd t6, 240(sp)
    800000fe:	f9fe                	sd	t6,240(sp)

        call handle_trap
    80000100:	1d2000ef          	jal	800002d2 <handle_trap>
  
        # restore registers.
        ld ra, 0(sp)
    80000104:	6082                	ld	ra,0(sp)
        ld sp, 8(sp)
    80000106:	6122                	ld	sp,8(sp)
        ld gp, 16(sp)
    80000108:	61c2                	ld	gp,16(sp)
        # not this, in case we moved CPUs: ld tp, 24(sp)
        ld t0, 32(sp)
    8000010a:	7282                	ld	t0,32(sp)
        ld t1, 40(sp)
    8000010c:	7322                	ld	t1,40(sp)
        ld t2, 48(sp)
    8000010e:	73c2                	ld	t2,48(sp)
        ld s0, 56(sp)
    80000110:	7462                	ld	s0,56(sp)
        ld s1, 64(sp)
    80000112:	6486                	ld	s1,64(sp)
        ld a0, 72(sp)
    80000114:	6526                	ld	a0,72(sp)
        ld a1, 80(sp)
    80000116:	65c6                	ld	a1,80(sp)
        ld a2, 88(sp)
    80000118:	6666                	ld	a2,88(sp)
        ld a3, 96(sp)
    8000011a:	7686                	ld	a3,96(sp)
        ld a4, 104(sp)
    8000011c:	7726                	ld	a4,104(sp)
        ld a5, 112(sp)
    8000011e:	77c6                	ld	a5,112(sp)
        ld a6, 120(sp)
    80000120:	7866                	ld	a6,120(sp)
        ld a7, 128(sp)
    80000122:	688a                	ld	a7,128(sp)
        ld s2, 136(sp)
    80000124:	692a                	ld	s2,136(sp)
        ld s3, 144(sp)
    80000126:	69ca                	ld	s3,144(sp)
        ld s4, 152(sp)
    80000128:	6a6a                	ld	s4,152(sp)
        ld s5, 160(sp)
    8000012a:	7a8a                	ld	s5,160(sp)
        ld s6, 168(sp)
    8000012c:	7b2a                	ld	s6,168(sp)
        ld s7, 176(sp)
    8000012e:	7bca                	ld	s7,176(sp)
        ld s8, 184(sp)
    80000130:	7c6a                	ld	s8,184(sp)
        ld s9, 192(sp)
    80000132:	6c8e                	ld	s9,192(sp)
        ld s10, 200(sp)
    80000134:	6d2e                	ld	s10,200(sp)
        ld s11, 208(sp)
    80000136:	6dce                	ld	s11,208(sp)
        ld t3, 216(sp)
    80000138:	6e6e                	ld	t3,216(sp)
        ld t4, 224(sp)
    8000013a:	7e8e                	ld	t4,224(sp)
        ld t5, 232(sp)
    8000013c:	7f2e                	ld	t5,232(sp)
        ld t6, 240(sp)
    8000013e:	7fce                	ld	t6,240(sp)

        addi sp, sp, 256
    80000140:	6111                	addi	sp,sp,256

        mret
    80000142:	30200073          	mret
    80000146:	00000013          	nop
    8000014a:	00000013          	nop
    8000014e:	0001                	nop

0000000080000150 <timervec>:
        # start.c has set up the memory that mscratch points to:
        # scratch[0,8,16] : register save area.
        # scratch[32] : address of CLINT's MTIMECMP register.
        # scratch[40] : desired interval between interrupts.
        
        csrrw a0, mscratch, a0
    80000150:	34051573          	csrrw	a0,mscratch,a0
        sd a1, 0(a0)
    80000154:	e10c                	sd	a1,0(a0)
        sd a2, 8(a0)
    80000156:	e510                	sd	a2,8(a0)
        sd a3, 16(a0)
    80000158:	e914                	sd	a3,16(a0)

        # schedule the next timer interrupt
        # by adding interval to mtimecmp.
        ld a1, 32(a0) # CLINT_MTIMECMP(hart)
    8000015a:	710c                	ld	a1,32(a0)
        ld a2, 40(a0) # interval
    8000015c:	7510                	ld	a2,40(a0)
        ld a3, 0(a1)
    8000015e:	6194                	ld	a3,0(a1)
        add a3, a3, a2
    80000160:	96b2                	add	a3,a3,a2
        sd a3, 0(a1)
    80000162:	e194                	sd	a3,0(a1)

        # raise a supervisor software interrupt.
	li a1, 2
    80000164:	4589                	li	a1,2
        csrw sip, a1
    80000166:	14459073          	csrw	sip,a1

        ld a3, 16(a0)
    8000016a:	6914                	ld	a3,16(a0)
        ld a2, 8(a0)
    8000016c:	6510                	ld	a2,8(a0)
        ld a1, 0(a0)
    8000016e:	610c                	ld	a1,0(a0)
        csrrw a0, mscratch, a0
    80000170:	34051573          	csrrw	a0,mscratch,a0

        mret
    80000174:	30200073          	mret
	...

000000008000017a <handle_interrupt>:
#define MTIME (volatile unsigned long long int *)(CLINT_BASE + 0xbff8)
#define MTIMECMP (volatile unsigned long long int *)(CLINT_BASE + 0x4000)

int count = 0;

void handle_interrupt(uint64_t mcause) {
    8000017a:	7179                	addi	sp,sp,-48
    8000017c:	f406                	sd	ra,40(sp)
    8000017e:	f022                	sd	s0,32(sp)
    80000180:	1800                	addi	s0,sp,48
    80000182:	fca43c23          	sd	a0,-40(s0)
    if ((mcause << 1 >> 1) == 0x7) {
    80000186:	fd843703          	ld	a4,-40(s0)
    8000018a:	57fd                	li	a5,-1
    8000018c:	8385                	srli	a5,a5,0x1
    8000018e:	8f7d                	and	a4,a4,a5
    80000190:	479d                	li	a5,7
    80000192:	08f71663          	bne	a4,a5,8000021e <handle_interrupt+0xa4>
        print_s("Timer Interrupt: ");
    80000196:	00000517          	auipc	a0,0x0
    8000019a:	63250513          	addi	a0,a0,1586 # 800007c8 <timer_init+0x44>
    8000019e:	28a000ef          	jal	80000428 <print_s>
        print_i(++count);
    800001a2:	00001797          	auipc	a5,0x1
    800001a6:	e5e78793          	addi	a5,a5,-418 # 80001000 <count>
    800001aa:	439c                	lw	a5,0(a5)
    800001ac:	2785                	addiw	a5,a5,1
    800001ae:	0007871b          	sext.w	a4,a5
    800001b2:	00001797          	auipc	a5,0x1
    800001b6:	e4e78793          	addi	a5,a5,-434 # 80001000 <count>
    800001ba:	c398                	sw	a4,0(a5)
    800001bc:	00001797          	auipc	a5,0x1
    800001c0:	e4478793          	addi	a5,a5,-444 # 80001000 <count>
    800001c4:	439c                	lw	a5,0(a5)
    800001c6:	853e                	mv	a0,a5
    800001c8:	2d2000ef          	jal	8000049a <print_i>
        print_s("\n");
    800001cc:	00000517          	auipc	a0,0x0
    800001d0:	61450513          	addi	a0,a0,1556 # 800007e0 <timer_init+0x5c>
    800001d4:	254000ef          	jal	80000428 <print_s>

        *MTIMECMP = *MTIME + 0xfffff * 5;
    800001d8:	0200c7b7          	lui	a5,0x200c
    800001dc:	17e1                	addi	a5,a5,-8 # 200bff8 <STACK_SIZE+0x200b078>
    800001de:	6394                	ld	a3,0(a5)
    800001e0:	020047b7          	lui	a5,0x2004
    800001e4:	00500737          	lui	a4,0x500
    800001e8:	176d                	addi	a4,a4,-5 # 4ffffb <STACK_SIZE+0x4ff07b>
    800001ea:	9736                	add	a4,a4,a3
    800001ec:	e398                	sd	a4,0(a5)
        if (count == 10) {
    800001ee:	00001797          	auipc	a5,0x1
    800001f2:	e1278793          	addi	a5,a5,-494 # 80001000 <count>
    800001f6:	439c                	lw	a5,0(a5)
    800001f8:	873e                	mv	a4,a5
    800001fa:	47a9                	li	a5,10
    800001fc:	04f71763          	bne	a4,a5,8000024a <handle_interrupt+0xd0>
            unsigned long long int mie;
            asm volatile("csrr %0, mie" : "=r"(mie));
    80000200:	304027f3          	csrr	a5,mie
    80000204:	fef43423          	sd	a5,-24(s0)
            mie &= ~(1 << 7);
    80000208:	fe843783          	ld	a5,-24(s0)
    8000020c:	f7f7f793          	andi	a5,a5,-129
    80000210:	fef43423          	sd	a5,-24(s0)
            asm volatile("csrw mie, %0" : "=r"(mie));
    80000214:	30479073          	csrw	mie,a5
    80000218:	fef43423          	sd	a5,-24(s0)
        print_i(mcause << 1 >> 1);
        print_s("\n");
        while (1)
            ;
    }
}
    8000021c:	a03d                	j	8000024a <handle_interrupt+0xd0>
        print_s("Unknown interrupt: ");
    8000021e:	00000517          	auipc	a0,0x0
    80000222:	5ca50513          	addi	a0,a0,1482 # 800007e8 <timer_init+0x64>
    80000226:	202000ef          	jal	80000428 <print_s>
        print_i(mcause << 1 >> 1);
    8000022a:	fd843703          	ld	a4,-40(s0)
    8000022e:	57fd                	li	a5,-1
    80000230:	8385                	srli	a5,a5,0x1
    80000232:	8ff9                	and	a5,a5,a4
    80000234:	853e                	mv	a0,a5
    80000236:	264000ef          	jal	8000049a <print_i>
        print_s("\n");
    8000023a:	00000517          	auipc	a0,0x0
    8000023e:	5a650513          	addi	a0,a0,1446 # 800007e0 <timer_init+0x5c>
    80000242:	1e6000ef          	jal	80000428 <print_s>
        while (1)
    80000246:	0001                	nop
    80000248:	bffd                	j	80000246 <handle_interrupt+0xcc>
}
    8000024a:	0001                	nop
    8000024c:	70a2                	ld	ra,40(sp)
    8000024e:	7402                	ld	s0,32(sp)
    80000250:	6145                	addi	sp,sp,48
    80000252:	8082                	ret

0000000080000254 <handle_exception>:

void handle_exception(uint64_t mcause) {
    80000254:	7179                	addi	sp,sp,-48
    80000256:	f406                	sd	ra,40(sp)
    80000258:	f022                	sd	s0,32(sp)
    8000025a:	1800                	addi	s0,sp,48
    8000025c:	fca43c23          	sd	a0,-40(s0)
    unsigned long long int mie;

    if (mcause == 0x8) {
    80000260:	fd843703          	ld	a4,-40(s0)
    80000264:	47a1                	li	a5,8
    80000266:	02f71c63          	bne	a4,a5,8000029e <handle_exception+0x4a>
        *MTIMECMP = *MTIME + 0xfffff * 5;
    8000026a:	0200c7b7          	lui	a5,0x200c
    8000026e:	17e1                	addi	a5,a5,-8 # 200bff8 <STACK_SIZE+0x200b078>
    80000270:	6394                	ld	a3,0(a5)
    80000272:	020047b7          	lui	a5,0x2004
    80000276:	00500737          	lui	a4,0x500
    8000027a:	176d                	addi	a4,a4,-5 # 4ffffb <STACK_SIZE+0x4ff07b>
    8000027c:	9736                	add	a4,a4,a3
    8000027e:	e398                	sd	a4,0(a5)

        asm volatile("csrr %0, mie" : "=r"(mie));
    80000280:	304027f3          	csrr	a5,mie
    80000284:	fef43423          	sd	a5,-24(s0)
        mie |= (1 << 7);
    80000288:	fe843783          	ld	a5,-24(s0)
    8000028c:	0807e793          	ori	a5,a5,128
    80000290:	fef43423          	sd	a5,-24(s0)
        asm volatile("csrw mie, %0" : "=r"(mie));
    80000294:	30479073          	csrw	mie,a5
    80000298:	fef43423          	sd	a5,-24(s0)
        print_i(mcause << 1 >> 1);
        print_s("\n");
        while (1)
            ;
    }
}
    8000029c:	a03d                	j	800002ca <handle_exception+0x76>
        print_s("Unknown exception: ");
    8000029e:	00000517          	auipc	a0,0x0
    800002a2:	56250513          	addi	a0,a0,1378 # 80000800 <timer_init+0x7c>
    800002a6:	182000ef          	jal	80000428 <print_s>
        print_i(mcause << 1 >> 1);
    800002aa:	fd843703          	ld	a4,-40(s0)
    800002ae:	57fd                	li	a5,-1
    800002b0:	8385                	srli	a5,a5,0x1
    800002b2:	8ff9                	and	a5,a5,a4
    800002b4:	853e                	mv	a0,a5
    800002b6:	1e4000ef          	jal	8000049a <print_i>
        print_s("\n");
    800002ba:	00000517          	auipc	a0,0x0
    800002be:	52650513          	addi	a0,a0,1318 # 800007e0 <timer_init+0x5c>
    800002c2:	166000ef          	jal	80000428 <print_s>
        while (1)
    800002c6:	0001                	nop
    800002c8:	bffd                	j	800002c6 <handle_exception+0x72>
}
    800002ca:	70a2                	ld	ra,40(sp)
    800002cc:	7402                	ld	s0,32(sp)
    800002ce:	6145                	addi	sp,sp,48
    800002d0:	8082                	ret

00000000800002d2 <handle_trap>:

void handle_trap() {
    800002d2:	1101                	addi	sp,sp,-32
    800002d4:	ec06                	sd	ra,24(sp)
    800002d6:	e822                	sd	s0,16(sp)
    800002d8:	1000                	addi	s0,sp,32
    uint64_t mcause, mepc;
    asm volatile("csrr %0, mcause" : "=r"(mcause));
    800002da:	342027f3          	csrr	a5,mcause
    800002de:	fef43423          	sd	a5,-24(s0)
    asm volatile("csrr %0, mepc" : "=r"(mepc));
    800002e2:	341027f3          	csrr	a5,mepc
    800002e6:	fef43023          	sd	a5,-32(s0)

    if (mcause >> 63) {
    800002ea:	fe843783          	ld	a5,-24(s0)
    800002ee:	0007d763          	bgez	a5,800002fc <handle_trap+0x2a>
        handle_interrupt(mcause);
    800002f2:	fe843503          	ld	a0,-24(s0)
    800002f6:	e85ff0ef          	jal	8000017a <handle_interrupt>
        handle_exception(mcause);
        asm volatile("csrr t0, mepc");
        asm volatile("addi t0, t0, 0x4");
        asm volatile("csrw mepc, t0");
    }
}
    800002fa:	a811                	j	8000030e <handle_trap+0x3c>
        handle_exception(mcause);
    800002fc:	fe843503          	ld	a0,-24(s0)
    80000300:	f55ff0ef          	jal	80000254 <handle_exception>
        asm volatile("csrr t0, mepc");
    80000304:	341022f3          	csrr	t0,mepc
        asm volatile("addi t0, t0, 0x4");
    80000308:	0291                	addi	t0,t0,4
        asm volatile("csrw mepc, t0");
    8000030a:	34129073          	csrw	mepc,t0
}
    8000030e:	0001                	nop
    80000310:	60e2                	ld	ra,24(sp)
    80000312:	6442                	ld	s0,16(sp)
    80000314:	6105                	addi	sp,sp,32
    80000316:	8082                	ret

0000000080000318 <uart_init>:

#include "uart.h"

static volatile uint8_t *uart;

void uart_init() {
    80000318:	1101                	addi	sp,sp,-32
    8000031a:	ec22                	sd	s0,24(sp)
    8000031c:	1000                	addi	s0,sp,32
    uart = (uint8_t *)(void *)NS16550A_UART0_CTRL_ADDR;
    8000031e:	00001797          	auipc	a5,0x1
    80000322:	cea78793          	addi	a5,a5,-790 # 80001008 <uart>
    80000326:	10000737          	lui	a4,0x10000
    8000032a:	e398                	sd	a4,0(a5)
    uint32_t uart_freq = UART0_CLOCK_FREQ;
    8000032c:	001c27b7          	lui	a5,0x1c2
    80000330:	fef42623          	sw	a5,-20(s0)
    uint32_t baud_rate = UART0_BAUD_RATE;
    80000334:	67f1                	lui	a5,0x1c
    80000336:	20078793          	addi	a5,a5,512 # 1c200 <STACK_SIZE+0x1b280>
    8000033a:	fef42423          	sw	a5,-24(s0)
    uint32_t divisor = uart_freq / (16 * baud_rate);
    8000033e:	fe842783          	lw	a5,-24(s0)
    80000342:	0047979b          	slliw	a5,a5,0x4
    80000346:	2781                	sext.w	a5,a5
    80000348:	fec42703          	lw	a4,-20(s0)
    8000034c:	02f757bb          	divuw	a5,a4,a5
    80000350:	fef42223          	sw	a5,-28(s0)
    uart[UART_LCR] = UART_LCR_DLAB;
    80000354:	00001797          	auipc	a5,0x1
    80000358:	cb478793          	addi	a5,a5,-844 # 80001008 <uart>
    8000035c:	639c                	ld	a5,0(a5)
    8000035e:	078d                	addi	a5,a5,3
    80000360:	f8000713          	li	a4,-128
    80000364:	00e78023          	sb	a4,0(a5)
    uart[UART_DLL] = divisor & 0xff;
    80000368:	00001797          	auipc	a5,0x1
    8000036c:	ca078793          	addi	a5,a5,-864 # 80001008 <uart>
    80000370:	639c                	ld	a5,0(a5)
    80000372:	fe442703          	lw	a4,-28(s0)
    80000376:	0ff77713          	zext.b	a4,a4
    8000037a:	00e78023          	sb	a4,0(a5)
    uart[UART_DLM] = (divisor >> 8) & 0xff;
    8000037e:	fe442783          	lw	a5,-28(s0)
    80000382:	0087d79b          	srliw	a5,a5,0x8
    80000386:	0007871b          	sext.w	a4,a5
    8000038a:	00001797          	auipc	a5,0x1
    8000038e:	c7e78793          	addi	a5,a5,-898 # 80001008 <uart>
    80000392:	639c                	ld	a5,0(a5)
    80000394:	0785                	addi	a5,a5,1
    80000396:	0ff77713          	zext.b	a4,a4
    8000039a:	00e78023          	sb	a4,0(a5)
    uart[UART_LCR] = UART_LCR_PODD | UART_LCR_8BIT;
    8000039e:	00001797          	auipc	a5,0x1
    800003a2:	c6a78793          	addi	a5,a5,-918 # 80001008 <uart>
    800003a6:	639c                	ld	a5,0(a5)
    800003a8:	078d                	addi	a5,a5,3
    800003aa:	472d                	li	a4,11
    800003ac:	00e78023          	sb	a4,0(a5)
}
    800003b0:	0001                	nop
    800003b2:	6462                	ld	s0,24(sp)
    800003b4:	6105                	addi	sp,sp,32
    800003b6:	8082                	ret

00000000800003b8 <ns16550a_putchar>:

static int ns16550a_putchar(int ch) {
    800003b8:	1101                	addi	sp,sp,-32
    800003ba:	ec22                	sd	s0,24(sp)
    800003bc:	1000                	addi	s0,sp,32
    800003be:	87aa                	mv	a5,a0
    800003c0:	fef42623          	sw	a5,-20(s0)
    while ((uart[UART_LSR] & UART_LSR_RI) == 0)
    800003c4:	0001                	nop
    800003c6:	00001797          	auipc	a5,0x1
    800003ca:	c4278793          	addi	a5,a5,-958 # 80001008 <uart>
    800003ce:	639c                	ld	a5,0(a5)
    800003d0:	0795                	addi	a5,a5,5
    800003d2:	0007c783          	lbu	a5,0(a5)
    800003d6:	0ff7f793          	zext.b	a5,a5
    800003da:	2781                	sext.w	a5,a5
    800003dc:	0407f793          	andi	a5,a5,64
    800003e0:	2781                	sext.w	a5,a5
    800003e2:	d3f5                	beqz	a5,800003c6 <ns16550a_putchar+0xe>
        ;
    return uart[UART_THR] = ch & 0xff;
    800003e4:	00001797          	auipc	a5,0x1
    800003e8:	c2478793          	addi	a5,a5,-988 # 80001008 <uart>
    800003ec:	6398                	ld	a4,0(a5)
    800003ee:	fec42783          	lw	a5,-20(s0)
    800003f2:	0ff7f793          	zext.b	a5,a5
    800003f6:	00f70023          	sb	a5,0(a4) # 10000000 <STACK_SIZE+0xffff080>
    800003fa:	2781                	sext.w	a5,a5
}
    800003fc:	853e                	mv	a0,a5
    800003fe:	6462                	ld	s0,24(sp)
    80000400:	6105                	addi	sp,sp,32
    80000402:	8082                	ret

0000000080000404 <uart_send>:

void uart_send(char c) { ns16550a_putchar(c); }
    80000404:	1101                	addi	sp,sp,-32
    80000406:	ec06                	sd	ra,24(sp)
    80000408:	e822                	sd	s0,16(sp)
    8000040a:	1000                	addi	s0,sp,32
    8000040c:	87aa                	mv	a5,a0
    8000040e:	fef407a3          	sb	a5,-17(s0)
    80000412:	fef44783          	lbu	a5,-17(s0)
    80000416:	2781                	sext.w	a5,a5
    80000418:	853e                	mv	a0,a5
    8000041a:	f9fff0ef          	jal	800003b8 <ns16550a_putchar>
    8000041e:	0001                	nop
    80000420:	60e2                	ld	ra,24(sp)
    80000422:	6442                	ld	s0,16(sp)
    80000424:	6105                	addi	sp,sp,32
    80000426:	8082                	ret

0000000080000428 <print_s>:

void print_s(const char *s) {
    80000428:	1101                	addi	sp,sp,-32
    8000042a:	ec06                	sd	ra,24(sp)
    8000042c:	e822                	sd	s0,16(sp)
    8000042e:	1000                	addi	s0,sp,32
    80000430:	fea43423          	sd	a0,-24(s0)
    while (*s != '\0') {
    80000434:	a03d                	j	80000462 <print_s+0x3a>
        /* convert newline to carrige return + newline */
        if (*s == '\n') uart_send('\r');
    80000436:	fe843783          	ld	a5,-24(s0)
    8000043a:	0007c783          	lbu	a5,0(a5)
    8000043e:	873e                	mv	a4,a5
    80000440:	47a9                	li	a5,10
    80000442:	00f71563          	bne	a4,a5,8000044c <print_s+0x24>
    80000446:	4535                	li	a0,13
    80000448:	fbdff0ef          	jal	80000404 <uart_send>
        uart_send(*s++);
    8000044c:	fe843783          	ld	a5,-24(s0)
    80000450:	00178713          	addi	a4,a5,1
    80000454:	fee43423          	sd	a4,-24(s0)
    80000458:	0007c783          	lbu	a5,0(a5)
    8000045c:	853e                	mv	a0,a5
    8000045e:	fa7ff0ef          	jal	80000404 <uart_send>
    while (*s != '\0') {
    80000462:	fe843783          	ld	a5,-24(s0)
    80000466:	0007c783          	lbu	a5,0(a5)
    8000046a:	f7f1                	bnez	a5,80000436 <print_s+0xe>
    }
}
    8000046c:	0001                	nop
    8000046e:	0001                	nop
    80000470:	60e2                	ld	ra,24(sp)
    80000472:	6442                	ld	s0,16(sp)
    80000474:	6105                	addi	sp,sp,32
    80000476:	8082                	ret

0000000080000478 <print_c>:

void print_c(char c) { uart_send(c); }
    80000478:	1101                	addi	sp,sp,-32
    8000047a:	ec06                	sd	ra,24(sp)
    8000047c:	e822                	sd	s0,16(sp)
    8000047e:	1000                	addi	s0,sp,32
    80000480:	87aa                	mv	a5,a0
    80000482:	fef407a3          	sb	a5,-17(s0)
    80000486:	fef44783          	lbu	a5,-17(s0)
    8000048a:	853e                	mv	a0,a5
    8000048c:	f79ff0ef          	jal	80000404 <uart_send>
    80000490:	0001                	nop
    80000492:	60e2                	ld	ra,24(sp)
    80000494:	6442                	ld	s0,16(sp)
    80000496:	6105                	addi	sp,sp,32
    80000498:	8082                	ret

000000008000049a <print_i>:

void print_i(unsigned long int x) {
    8000049a:	1101                	addi	sp,sp,-32
    8000049c:	ec06                	sd	ra,24(sp)
    8000049e:	e822                	sd	s0,16(sp)
    800004a0:	1000                	addi	s0,sp,32
    800004a2:	fea43423          	sd	a0,-24(s0)
    if (x < 0) {
        print_c('-');
        x = -x;
    }
    if (x >= 10) print_i(x / 10);
    800004a6:	fe843703          	ld	a4,-24(s0)
    800004aa:	47a5                	li	a5,9
    800004ac:	00e7fa63          	bgeu	a5,a4,800004c0 <print_i+0x26>
    800004b0:	fe843703          	ld	a4,-24(s0)
    800004b4:	47a9                	li	a5,10
    800004b6:	02f757b3          	divu	a5,a4,a5
    800004ba:	853e                	mv	a0,a5
    800004bc:	fdfff0ef          	jal	8000049a <print_i>
    print_c(x % 10 + '0');
    800004c0:	fe843703          	ld	a4,-24(s0)
    800004c4:	47a9                	li	a5,10
    800004c6:	02f777b3          	remu	a5,a4,a5
    800004ca:	0ff7f793          	zext.b	a5,a5
    800004ce:	0307879b          	addiw	a5,a5,48
    800004d2:	0ff7f793          	zext.b	a5,a5
    800004d6:	853e                	mv	a0,a5
    800004d8:	fa1ff0ef          	jal	80000478 <print_c>
}
    800004dc:	0001                	nop
    800004de:	60e2                	ld	ra,24(sp)
    800004e0:	6442                	ld	s0,16(sp)
    800004e2:	6105                	addi	sp,sp,32
    800004e4:	8082                	ret

00000000800004e6 <print_h>:

void print_h(unsigned long int d) {
    800004e6:	7179                	addi	sp,sp,-48
    800004e8:	f406                	sd	ra,40(sp)
    800004ea:	f022                	sd	s0,32(sp)
    800004ec:	1800                	addi	s0,sp,48
    800004ee:	fca43c23          	sd	a0,-40(s0)
    unsigned int n;
    int c;
    for (c = 28; c >= 0; c -= 4) {
    800004f2:	47f1                	li	a5,28
    800004f4:	fef42623          	sw	a5,-20(s0)
    800004f8:	a889                	j	8000054a <print_h+0x64>
        // get highest tetrad
        n = (d >> c) & 0xF;
    800004fa:	fec42783          	lw	a5,-20(s0)
    800004fe:	873e                	mv	a4,a5
    80000500:	fd843783          	ld	a5,-40(s0)
    80000504:	00e7d7b3          	srl	a5,a5,a4
    80000508:	2781                	sext.w	a5,a5
    8000050a:	8bbd                	andi	a5,a5,15
    8000050c:	fef42423          	sw	a5,-24(s0)
        // 0-9 => '0'-'9', 10-15 => 'A'-'F'
        n += n > 9 ? 0x37 : 0x30;
    80000510:	fe842783          	lw	a5,-24(s0)
    80000514:	0007871b          	sext.w	a4,a5
    80000518:	47a5                	li	a5,9
    8000051a:	00e7f563          	bgeu	a5,a4,80000524 <print_h+0x3e>
    8000051e:	03700793          	li	a5,55
    80000522:	a019                	j	80000528 <print_h+0x42>
    80000524:	03000793          	li	a5,48
    80000528:	fe842703          	lw	a4,-24(s0)
    8000052c:	9fb9                	addw	a5,a5,a4
    8000052e:	fef42423          	sw	a5,-24(s0)
        uart_send(n);
    80000532:	fe842783          	lw	a5,-24(s0)
    80000536:	0ff7f793          	zext.b	a5,a5
    8000053a:	853e                	mv	a0,a5
    8000053c:	ec9ff0ef          	jal	80000404 <uart_send>
    for (c = 28; c >= 0; c -= 4) {
    80000540:	fec42783          	lw	a5,-20(s0)
    80000544:	37f1                	addiw	a5,a5,-4
    80000546:	fef42623          	sw	a5,-20(s0)
    8000054a:	fec42783          	lw	a5,-20(s0)
    8000054e:	2781                	sext.w	a5,a5
    80000550:	fa07d5e3          	bgez	a5,800004fa <print_h+0x14>
    }
}
    80000554:	0001                	nop
    80000556:	0001                	nop
    80000558:	70a2                	ld	ra,40(sp)
    8000055a:	7402                	ld	s0,32(sp)
    8000055c:	6145                	addi	sp,sp,48
    8000055e:	8082                	ret

0000000080000560 <main>:
#include <timer.h>

#include "trap.h"
#include "uart.h"

int main() {
    80000560:	1141                	addi	sp,sp,-16
    80000562:	e406                	sd	ra,8(sp)
    80000564:	e022                	sd	s0,0(sp)
    80000566:	0800                	addi	s0,sp,16
    uart_init();
    80000568:	db1ff0ef          	jal	80000318 <uart_init>
    print_s("Hello world!\n");
    8000056c:	00000517          	auipc	a0,0x0
    80000570:	2ac50513          	addi	a0,a0,684 # 80000818 <timer_init+0x94>
    80000574:	eb5ff0ef          	jal	80000428 <print_s>
    print_s("Raise exception to enable timer...\n");
    80000578:	00000517          	auipc	a0,0x0
    8000057c:	2b050513          	addi	a0,a0,688 # 80000828 <timer_init+0xa4>
    80000580:	ea9ff0ef          	jal	80000428 <print_s>
    print_s("Back to user mode\n");
    80000584:	00000517          	auipc	a0,0x0
    80000588:	2cc50513          	addi	a0,a0,716 # 80000850 <timer_init+0xcc>
    8000058c:	e9dff0ef          	jal	80000428 <print_s>
    while(1){;}
    80000590:	0001                	nop
    80000592:	bffd                	j	80000590 <main+0x30>

0000000080000594 <r_mhartid>:
void start() {
    // set M Previous Privilege mode to Supervisor, for mret.
    unsigned long x = r_mstatus();
    x &= ~MSTATUS_MPP_MASK;
    x |= MSTATUS_MPP_S;
    w_mstatus(x);
    80000594:	1101                	addi	sp,sp,-32
    80000596:	ec22                	sd	s0,24(sp)
    80000598:	1000                	addi	s0,sp,32

    // set M Exception Program Counter to main, for mret.
    8000059a:	f14027f3          	csrr	a5,mhartid
    8000059e:	fef43423          	sd	a5,-24(s0)
    // requires gcc -mcmodel=medany
    800005a2:	fe843783          	ld	a5,-24(s0)
    w_mepc((uint64_t)main);
    800005a6:	853e                	mv	a0,a5
    800005a8:	6462                	ld	s0,24(sp)
    800005aa:	6105                	addi	sp,sp,32
    800005ac:	8082                	ret

00000000800005ae <r_mstatus>:

    // disable paging for now.
    800005ae:	1101                	addi	sp,sp,-32
    800005b0:	ec22                	sd	s0,24(sp)
    800005b2:	1000                	addi	s0,sp,32
    w_satp(0);

    800005b4:	300027f3          	csrr	a5,mstatus
    800005b8:	fef43423          	sd	a5,-24(s0)
    // physical memory protection
    800005bc:	fe843783          	ld	a5,-24(s0)
    w_pmpcfg0(0xf);
    800005c0:	853e                	mv	a0,a5
    800005c2:	6462                	ld	s0,24(sp)
    800005c4:	6105                	addi	sp,sp,32
    800005c6:	8082                	ret

00000000800005c8 <w_mstatus>:
    w_pmpaddr0(0xffffffffffffffff);

    800005c8:	1101                	addi	sp,sp,-32
    800005ca:	ec22                	sd	s0,24(sp)
    800005cc:	1000                	addi	s0,sp,32
    800005ce:	fea43423          	sd	a0,-24(s0)
    // delegate all interrupts and exceptions to supervisor mode.
    800005d2:	fe843783          	ld	a5,-24(s0)
    800005d6:	30079073          	csrw	mstatus,a5
    w_medeleg(0xffff);
    800005da:	0001                	nop
    800005dc:	6462                	ld	s0,24(sp)
    800005de:	6105                	addi	sp,sp,32
    800005e0:	8082                	ret

00000000800005e2 <w_mepc>:
    w_mideleg(0xffff);

    // setup trap_entry
    w_mtvec((uint64_t)trap_entry);

    800005e2:	1101                	addi	sp,sp,-32
    800005e4:	ec22                	sd	s0,24(sp)
    800005e6:	1000                	addi	s0,sp,32
    800005e8:	fea43423          	sd	a0,-24(s0)
    // keep each CPU's hartid in its tp register, for cpuid().
    800005ec:	fe843783          	ld	a5,-24(s0)
    800005f0:	34179073          	csrw	mepc,a5
    int id = r_mhartid();
    800005f4:	0001                	nop
    800005f6:	6462                	ld	s0,24(sp)
    800005f8:	6105                	addi	sp,sp,32
    800005fa:	8082                	ret

00000000800005fc <w_pmpcfg0>:
    800005fc:	1101                	addi	sp,sp,-32
    800005fe:	ec22                	sd	s0,24(sp)
    80000600:	1000                	addi	s0,sp,32
    80000602:	fea43423          	sd	a0,-24(s0)
    80000606:	fe843783          	ld	a5,-24(s0)
    8000060a:	3a079073          	csrw	pmpcfg0,a5
    8000060e:	0001                	nop
    80000610:	6462                	ld	s0,24(sp)
    80000612:	6105                	addi	sp,sp,32
    80000614:	8082                	ret

0000000080000616 <w_pmpaddr0>:
    80000616:	1101                	addi	sp,sp,-32
    80000618:	ec22                	sd	s0,24(sp)
    8000061a:	1000                	addi	s0,sp,32
    8000061c:	fea43423          	sd	a0,-24(s0)
    80000620:	fe843783          	ld	a5,-24(s0)
    80000624:	3b079073          	csrw	pmpaddr0,a5
    80000628:	0001                	nop
    8000062a:	6462                	ld	s0,24(sp)
    8000062c:	6105                	addi	sp,sp,32
    8000062e:	8082                	ret

0000000080000630 <w_medeleg>:
    80000630:	1101                	addi	sp,sp,-32
    80000632:	ec22                	sd	s0,24(sp)
    80000634:	1000                	addi	s0,sp,32
    80000636:	fea43423          	sd	a0,-24(s0)
    8000063a:	fe843783          	ld	a5,-24(s0)
    8000063e:	30279073          	csrw	medeleg,a5
    80000642:	0001                	nop
    80000644:	6462                	ld	s0,24(sp)
    80000646:	6105                	addi	sp,sp,32
    80000648:	8082                	ret

000000008000064a <w_mideleg>:
    8000064a:	1101                	addi	sp,sp,-32
    8000064c:	ec22                	sd	s0,24(sp)
    8000064e:	1000                	addi	s0,sp,32
    80000650:	fea43423          	sd	a0,-24(s0)
    80000654:	fe843783          	ld	a5,-24(s0)
    80000658:	30379073          	csrw	mideleg,a5
    8000065c:	0001                	nop
    8000065e:	6462                	ld	s0,24(sp)
    80000660:	6105                	addi	sp,sp,32
    80000662:	8082                	ret

0000000080000664 <w_mtvec>:
    80000664:	1101                	addi	sp,sp,-32
    80000666:	ec22                	sd	s0,24(sp)
    80000668:	1000                	addi	s0,sp,32
    8000066a:	fea43423          	sd	a0,-24(s0)
    8000066e:	fe843783          	ld	a5,-24(s0)
    80000672:	30579073          	csrw	mtvec,a5
    80000676:	0001                	nop
    80000678:	6462                	ld	s0,24(sp)
    8000067a:	6105                	addi	sp,sp,32
    8000067c:	8082                	ret

000000008000067e <w_satp>:
    8000067e:	1101                	addi	sp,sp,-32
    80000680:	ec22                	sd	s0,24(sp)
    80000682:	1000                	addi	s0,sp,32
    80000684:	fea43423          	sd	a0,-24(s0)
    80000688:	fe843783          	ld	a5,-24(s0)
    8000068c:	18079073          	csrw	satp,a5
    80000690:	0001                	nop
    80000692:	6462                	ld	s0,24(sp)
    80000694:	6105                	addi	sp,sp,32
    80000696:	8082                	ret

0000000080000698 <w_tp>:
    80000698:	1101                	addi	sp,sp,-32
    8000069a:	ec22                	sd	s0,24(sp)
    8000069c:	1000                	addi	s0,sp,32
    8000069e:	fea43423          	sd	a0,-24(s0)
    800006a2:	fe843783          	ld	a5,-24(s0)
    800006a6:	823e                	mv	tp,a5
    800006a8:	0001                	nop
    800006aa:	6462                	ld	s0,24(sp)
    800006ac:	6105                	addi	sp,sp,32
    800006ae:	8082                	ret

00000000800006b0 <start>:
void start() {
    800006b0:	1101                	addi	sp,sp,-32
    800006b2:	ec06                	sd	ra,24(sp)
    800006b4:	e822                	sd	s0,16(sp)
    800006b6:	1000                	addi	s0,sp,32
    unsigned long x = r_mstatus();
    800006b8:	ef7ff0ef          	jal	800005ae <r_mstatus>
    800006bc:	fea43423          	sd	a0,-24(s0)
    x &= ~MSTATUS_MPP_MASK;
    800006c0:	fe843703          	ld	a4,-24(s0)
    800006c4:	77f9                	lui	a5,0xffffe
    800006c6:	7ff78793          	addi	a5,a5,2047 # ffffffffffffe7ff <end+0xffffffff7fff57ef>
    800006ca:	8ff9                	and	a5,a5,a4
    800006cc:	fef43423          	sd	a5,-24(s0)
    x |= MSTATUS_MPP_S;
    800006d0:	fe843703          	ld	a4,-24(s0)
    800006d4:	6785                	lui	a5,0x1
    800006d6:	80078793          	addi	a5,a5,-2048 # 800 <REGBYTES+0x7f8>
    800006da:	8fd9                	or	a5,a5,a4
    800006dc:	fef43423          	sd	a5,-24(s0)
    w_mstatus(x);
    800006e0:	fe843503          	ld	a0,-24(s0)
    800006e4:	ee5ff0ef          	jal	800005c8 <w_mstatus>
    w_mepc((uint64_t)main);
    800006e8:	00000797          	auipc	a5,0x0
    800006ec:	e7878793          	addi	a5,a5,-392 # 80000560 <main>
    800006f0:	853e                	mv	a0,a5
    800006f2:	ef1ff0ef          	jal	800005e2 <w_mepc>
    w_satp(0);
    800006f6:	4501                	li	a0,0
    800006f8:	f87ff0ef          	jal	8000067e <w_satp>
    w_pmpcfg0(0xf);
    800006fc:	453d                	li	a0,15
    800006fe:	effff0ef          	jal	800005fc <w_pmpcfg0>
    w_pmpaddr0(0xffffffffffffffff);
    80000702:	557d                	li	a0,-1
    80000704:	f13ff0ef          	jal	80000616 <w_pmpaddr0>
    w_medeleg(0xffff);
    80000708:	67c1                	lui	a5,0x10
    8000070a:	fff78513          	addi	a0,a5,-1 # ffff <STACK_SIZE+0xf07f>
    8000070e:	f23ff0ef          	jal	80000630 <w_medeleg>
    w_mideleg(0xffff);
    80000712:	67c1                	lui	a5,0x10
    80000714:	fff78513          	addi	a0,a5,-1 # ffff <STACK_SIZE+0xf07f>
    80000718:	f33ff0ef          	jal	8000064a <w_mideleg>
    w_mtvec((uint64_t)trap_entry);
    8000071c:	00000797          	auipc	a5,0x0
    80000720:	9a478793          	addi	a5,a5,-1628 # 800000c0 <trap_entry>
    80000724:	853e                	mv	a0,a5
    80000726:	f3fff0ef          	jal	80000664 <w_mtvec>
    int id = r_mhartid();
    8000072a:	e6bff0ef          	jal	80000594 <r_mhartid>
    8000072e:	87aa                	mv	a5,a0
    80000730:	fef42223          	sw	a5,-28(s0)
    w_tp(id);
    80000734:	fe442783          	lw	a5,-28(s0)
    80000738:	853e                	mv	a0,a5
    8000073a:	f5fff0ef          	jal	80000698 <w_tp>
    timer_init();
    8000073e:	046000ef          	jal	80000784 <timer_init>
    asm volatile("j main");
    80000742:	e1fff06f          	j	80000560 <main>
}
    80000746:	0001                	nop
    80000748:	60e2                	ld	ra,24(sp)
    8000074a:	6442                	ld	s0,16(sp)
    8000074c:	6105                	addi	sp,sp,32
    8000074e:	8082                	ret

0000000080000750 <r_mie>:
    80000750:	1101                	addi	sp,sp,-32
    80000752:	ec22                	sd	s0,24(sp)
    80000754:	1000                	addi	s0,sp,32
    80000756:	304027f3          	csrr	a5,mie
    8000075a:	fef43423          	sd	a5,-24(s0)
    8000075e:	fe843783          	ld	a5,-24(s0)
    80000762:	853e                	mv	a0,a5
    80000764:	6462                	ld	s0,24(sp)
    80000766:	6105                	addi	sp,sp,32
    80000768:	8082                	ret

000000008000076a <w_mie>:
    8000076a:	1101                	addi	sp,sp,-32
    8000076c:	ec22                	sd	s0,24(sp)
    8000076e:	1000                	addi	s0,sp,32
    80000770:	fea43423          	sd	a0,-24(s0)
    80000774:	fe843783          	ld	a5,-24(s0)
    80000778:	30479073          	csrw	mie,a5
    8000077c:	0001                	nop
    8000077e:	6462                	ld	s0,24(sp)
    80000780:	6105                	addi	sp,sp,32
    80000782:	8082                	ret

0000000080000784 <timer_init>:
void timer_init() {
    80000784:	1101                	addi	sp,sp,-32
    80000786:	ec06                	sd	ra,24(sp)
    80000788:	e822                	sd	s0,16(sp)
    8000078a:	1000                	addi	s0,sp,32
    *MTIMECMP = *MTIME + 0xfffff * 5;
    8000078c:	0200c7b7          	lui	a5,0x200c
    80000790:	17e1                	addi	a5,a5,-8 # 200bff8 <STACK_SIZE+0x200b078>
    80000792:	6394                	ld	a3,0(a5)
    80000794:	020047b7          	lui	a5,0x2004
    80000798:	00500737          	lui	a4,0x500
    8000079c:	176d                	addi	a4,a4,-5 # 4ffffb <STACK_SIZE+0x4ff07b>
    8000079e:	9736                	add	a4,a4,a3
    800007a0:	e398                	sd	a4,0(a5)
    uint64_t mie = r_mie();
    800007a2:	fafff0ef          	jal	80000750 <r_mie>
    800007a6:	fea43423          	sd	a0,-24(s0)
    mie |= (1 << 7);
    800007aa:	fe843783          	ld	a5,-24(s0)
    800007ae:	0807e793          	ori	a5,a5,128
    800007b2:	fef43423          	sd	a5,-24(s0)
    w_mie(mie);
    800007b6:	fe843503          	ld	a0,-24(s0)
    800007ba:	fb1ff0ef          	jal	8000076a <w_mie>
}
    800007be:	0001                	nop
    800007c0:	60e2                	ld	ra,24(sp)
    800007c2:	6442                	ld	s0,16(sp)
    800007c4:	6105                	addi	sp,sp,32
    800007c6:	8082                	ret
