
kernel.elf:     file format elf64-littleriscv


Disassembly of section .text:

0000000080000000 <_start>:

.section .text.start

.globl _start
_start:
    csrr   t0, mhartid
    80000000:	f14022f3          	csrr	t0,mhartid
    lui    t1, 0
    80000004:	00000337          	lui	t1,0x0
    beq    t0, t1, 2f
    80000008:	00628563          	beq	t0,t1,80000012 <_start+0x12>

1:  wfi
    8000000c:	10500073          	wfi
    j      1b
    80000010:	bff5                	j	8000000c <_start+0xc>

2:
    # initialize global pointer
    la gp, _gp
    80000012:	00001197          	auipc	gp,0x1
    80000016:	7ee18193          	addi	gp,gp,2030 # 80001800 <_gp>
  
    # initialize stack pointer
    la sp, stack_top
    8000001a:	00009117          	auipc	sp,0x9
    8000001e:	ff610113          	addi	sp,sp,-10 # 80009010 <end>
    call   start
    80000022:	68e000ef          	jal	800006b0 <start>
	...

0000000080000030 <kernelvec>:
.globl kerneltrap
.globl kernelvec
.align 4
kernelvec:
        # make room to save registers.
        addi sp, sp, -256
    80000030:	7111                	addi	sp,sp,-256

        # save the registers.
        sd ra, 0(sp)
    80000032:	e006                	sd	ra,0(sp)
        sd sp, 8(sp)
    80000034:	e40a                	sd	sp,8(sp)
        sd gp, 16(sp)
    80000036:	e80e                	sd	gp,16(sp)
        sd tp, 24(sp)
    80000038:	ec12                	sd	tp,24(sp)
        sd t0, 32(sp)
    8000003a:	f016                	sd	t0,32(sp)
        sd t1, 40(sp)
    8000003c:	f41a                	sd	t1,40(sp)
        sd t2, 48(sp)
    8000003e:	f81e                	sd	t2,48(sp)
        sd s0, 56(sp)
    80000040:	fc22                	sd	s0,56(sp)
        sd s1, 64(sp)
    80000042:	e0a6                	sd	s1,64(sp)
        sd a0, 72(sp)
    80000044:	e4aa                	sd	a0,72(sp)
        sd a1, 80(sp)
    80000046:	e8ae                	sd	a1,80(sp)
        sd a2, 88(sp)
    80000048:	ecb2                	sd	a2,88(sp)
        sd a3, 96(sp)
    8000004a:	f0b6                	sd	a3,96(sp)
        sd a4, 104(sp)
    8000004c:	f4ba                	sd	a4,104(sp)
        sd a5, 112(sp)
    8000004e:	f8be                	sd	a5,112(sp)
        sd a6, 120(sp)
    80000050:	fcc2                	sd	a6,120(sp)
        sd a7, 128(sp)
    80000052:	e146                	sd	a7,128(sp)
        sd s2, 136(sp)
    80000054:	e54a                	sd	s2,136(sp)
        sd s3, 144(sp)
    80000056:	e94e                	sd	s3,144(sp)
        sd s4, 152(sp)
    80000058:	ed52                	sd	s4,152(sp)
        sd s5, 160(sp)
    8000005a:	f156                	sd	s5,160(sp)
        sd s6, 168(sp)
    8000005c:	f55a                	sd	s6,168(sp)
        sd s7, 176(sp)
    8000005e:	f95e                	sd	s7,176(sp)
        sd s8, 184(sp)
    80000060:	fd62                	sd	s8,184(sp)
        sd s9, 192(sp)
    80000062:	e1e6                	sd	s9,192(sp)
        sd s10, 200(sp)
    80000064:	e5ea                	sd	s10,200(sp)
        sd s11, 208(sp)
    80000066:	e9ee                	sd	s11,208(sp)
        sd t3, 216(sp)
    80000068:	edf2                	sd	t3,216(sp)
        sd t4, 224(sp)
    8000006a:	f1f6                	sd	t4,224(sp)
        sd t5, 232(sp)
    8000006c:	f5fa                	sd	t5,232(sp)
        sd t6, 240(sp)
    8000006e:	f9fe                	sd	t6,240(sp)

	# call the C trap handler in trap.c
        # call kerneltrap

        # restore registers.
        ld ra, 0(sp)
    80000070:	6082                	ld	ra,0(sp)
        ld sp, 8(sp)
    80000072:	6122                	ld	sp,8(sp)
        ld gp, 16(sp)
    80000074:	61c2                	ld	gp,16(sp)
        # not this, in case we moved CPUs: ld tp, 24(sp)
        ld t0, 32(sp)
    80000076:	7282                	ld	t0,32(sp)
        ld t1, 40(sp)
    80000078:	7322                	ld	t1,40(sp)
        ld t2, 48(sp)
    8000007a:	73c2                	ld	t2,48(sp)
        ld s0, 56(sp)
    8000007c:	7462                	ld	s0,56(sp)
        ld s1, 64(sp)
    8000007e:	6486                	ld	s1,64(sp)
        ld a0, 72(sp)
    80000080:	6526                	ld	a0,72(sp)
        ld a1, 80(sp)
    80000082:	65c6                	ld	a1,80(sp)
        ld a2, 88(sp)
    80000084:	6666                	ld	a2,88(sp)
        ld a3, 96(sp)
    80000086:	7686                	ld	a3,96(sp)
        ld a4, 104(sp)
    80000088:	7726                	ld	a4,104(sp)
        ld a5, 112(sp)
    8000008a:	77c6                	ld	a5,112(sp)
        ld a6, 120(sp)
    8000008c:	7866                	ld	a6,120(sp)
        ld a7, 128(sp)
    8000008e:	688a                	ld	a7,128(sp)
        ld s2, 136(sp)
    80000090:	692a                	ld	s2,136(sp)
        ld s3, 144(sp)
    80000092:	69ca                	ld	s3,144(sp)
        ld s4, 152(sp)
    80000094:	6a6a                	ld	s4,152(sp)
        ld s5, 160(sp)
    80000096:	7a8a                	ld	s5,160(sp)
        ld s6, 168(sp)
    80000098:	7b2a                	ld	s6,168(sp)
        ld s7, 176(sp)
    8000009a:	7bca                	ld	s7,176(sp)
        ld s8, 184(sp)
    8000009c:	7c6a                	ld	s8,184(sp)
        ld s9, 192(sp)
    8000009e:	6c8e                	ld	s9,192(sp)
        ld s10, 200(sp)
    800000a0:	6d2e                	ld	s10,200(sp)
        ld s11, 208(sp)
    800000a2:	6dce                	ld	s11,208(sp)
        ld t3, 216(sp)
    800000a4:	6e6e                	ld	t3,216(sp)
        ld t4, 224(sp)
    800000a6:	7e8e                	ld	t4,224(sp)
        ld t5, 232(sp)
    800000a8:	7f2e                	ld	t5,232(sp)
        ld t6, 240(sp)
    800000aa:	7fce                	ld	t6,240(sp)

        addi sp, sp, 256
    800000ac:	6111                	addi	sp,sp,256

        # return to whatever we were doing in the kernel.
        sret
    800000ae:	10200073          	sret
    800000b2:	0001                	nop
    800000b4:	00000013          	nop
    800000b8:	00000013          	nop
    800000bc:	00000013          	nop

00000000800000c0 <trap_entry>:

.globl trap_entry
.align 4
trap_entry:
        # make room to save registers.
        addi sp, sp, -256
    800000c0:	7111                	addi	sp,sp,-256

        # save the registers.
        sd ra, 0(sp)
    800000c2:	e006                	sd	ra,0(sp)
        sd sp, 8(sp)
    800000c4:	e40a                	sd	sp,8(sp)
        sd gp, 16(sp)
    800000c6:	e80e                	sd	gp,16(sp)
        sd tp, 24(sp)
    800000c8:	ec12                	sd	tp,24(sp)
        sd t0, 32(sp)
    800000ca:	f016                	sd	t0,32(sp)
        sd t1, 40(sp)
    800000cc:	f41a                	sd	t1,40(sp)
        sd t2, 48(sp)
    800000ce:	f81e                	sd	t2,48(sp)
        sd s0, 56(sp)
    800000d0:	fc22                	sd	s0,56(sp)
        sd s1, 64(sp)
    800000d2:	e0a6                	sd	s1,64(sp)
        sd a0, 72(sp)
    800000d4:	e4aa                	sd	a0,72(sp)
        sd a1, 80(sp)
    800000d6:	e8ae                	sd	a1,80(sp)
        sd a2, 88(sp)
    800000d8:	ecb2                	sd	a2,88(sp)
        sd a3, 96(sp)
    800000da:	f0b6                	sd	a3,96(sp)
        sd a4, 104(sp)
    800000dc:	f4ba                	sd	a4,104(sp)
        sd a5, 112(sp)
    800000de:	f8be                	sd	a5,112(sp)
        sd a6, 120(sp)
    800000e0:	fcc2                	sd	a6,120(sp)
        sd a7, 128(sp)
    800000e2:	e146                	sd	a7,128(sp)
        sd s2, 136(sp)
    800000e4:	e54a                	sd	s2,136(sp)
        sd s3, 144(sp)
    800000e6:	e94e                	sd	s3,144(sp)
        sd s4, 152(sp)
    800000e8:	ed52                	sd	s4,152(sp)
        sd s5, 160(sp)
    800000ea:	f156                	sd	s5,160(sp)
        sd s6, 168(sp)
    800000ec:	f55a                	sd	s6,168(sp)
        sd s7, 176(sp)
    800000ee:	f95e                	sd	s7,176(sp)
        sd s8, 184(sp)
    800000f0:	fd62                	sd	s8,184(sp)
        sd s9, 192(sp)
    800000f2:	e1e6                	sd	s9,192(sp)
        sd s10, 200(sp)
    800000f4:	e5ea                	sd	s10,200(sp)
        sd s11, 208(sp)
    800000f6:	e9ee                	sd	s11,208(sp)
        sd t3, 216(sp)
    800000f8:	edf2                	sd	t3,216(sp)
        sd t4, 224(sp)
    800000fa:	f1f6                	sd	t4,224(sp)
        sd t5, 232(sp)
    800000fc:	f5fa                	sd	t5,232(sp)
        sd t6, 240(sp)
    800000fe:	f9fe                	sd	t6,240(sp)

        call handle_trap
    80000100:	1d2000ef          	jal	800002d2 <handle_trap>
  
        # restore registers.
        ld ra, 0(sp)
    80000104:	6082                	ld	ra,0(sp)
        ld sp, 8(sp)
    80000106:	6122                	ld	sp,8(sp)
        ld gp, 16(sp)
    80000108:	61c2                	ld	gp,16(sp)
        # not this, in case we moved CPUs: ld tp, 24(sp)
        ld t0, 32(sp)
    8000010a:	7282                	ld	t0,32(sp)
        ld t1, 40(sp)
    8000010c:	7322                	ld	t1,40(sp)
        ld t2, 48(sp)
    8000010e:	73c2                	ld	t2,48(sp)
        ld s0, 56(sp)
    80000110:	7462                	ld	s0,56(sp)
        ld s1, 64(sp)
    80000112:	6486                	ld	s1,64(sp)
        ld a0, 72(sp)
    80000114:	6526                	ld	a0,72(sp)
        ld a1, 80(sp)
    80000116:	65c6                	ld	a1,80(sp)
        ld a2, 88(sp)
    80000118:	6666                	ld	a2,88(sp)
        ld a3, 96(sp)
    8000011a:	7686                	ld	a3,96(sp)
        ld a4, 104(sp)
    8000011c:	7726                	ld	a4,104(sp)
        ld a5, 112(sp)
    8000011e:	77c6                	ld	a5,112(sp)
        ld a6, 120(sp)
    80000120:	7866                	ld	a6,120(sp)
        ld a7, 128(sp)
    80000122:	688a                	ld	a7,128(sp)
        ld s2, 136(sp)
    80000124:	692a                	ld	s2,136(sp)
        ld s3, 144(sp)
    80000126:	69ca                	ld	s3,144(sp)
        ld s4, 152(sp)
    80000128:	6a6a                	ld	s4,152(sp)
        ld s5, 160(sp)
    8000012a:	7a8a                	ld	s5,160(sp)
        ld s6, 168(sp)
    8000012c:	7b2a                	ld	s6,168(sp)
        ld s7, 176(sp)
    8000012e:	7bca                	ld	s7,176(sp)
        ld s8, 184(sp)
    80000130:	7c6a                	ld	s8,184(sp)
        ld s9, 192(sp)
    80000132:	6c8e                	ld	s9,192(sp)
        ld s10, 200(sp)
    80000134:	6d2e                	ld	s10,200(sp)
        ld s11, 208(sp)
    80000136:	6dce                	ld	s11,208(sp)
        ld t3, 216(sp)
    80000138:	6e6e                	ld	t3,216(sp)
        ld t4, 224(sp)
    8000013a:	7e8e                	ld	t4,224(sp)
        ld t5, 232(sp)
    8000013c:	7f2e                	ld	t5,232(sp)
        ld t6, 240(sp)
    8000013e:	7fce                	ld	t6,240(sp)

        addi sp, sp, 256
    80000140:	6111                	addi	sp,sp,256

        mret
    80000142:	30200073          	mret
    80000146:	00000013          	nop
    8000014a:	00000013          	nop
    8000014e:	0001                	nop

0000000080000150 <timervec>:
        # start.c has set up the memory that mscratch points to:
        # scratch[0,8,16] : register save area.
        # scratch[32] : address of CLINT's MTIMECMP register.
        # scratch[40] : desired interval between interrupts.
        
        csrrw a0, mscratch, a0
    80000150:	34051573          	csrrw	a0,mscratch,a0
        sd a1, 0(a0)
    80000154:	e10c                	sd	a1,0(a0)
        sd a2, 8(a0)
    80000156:	e510                	sd	a2,8(a0)
        sd a3, 16(a0)
    80000158:	e914                	sd	a3,16(a0)

        # schedule the next timer interrupt
        # by adding interval to mtimecmp.
        ld a1, 32(a0) # CLINT_MTIMECMP(hart)
    8000015a:	710c                	ld	a1,32(a0)
        ld a2, 40(a0) # interval
    8000015c:	7510                	ld	a2,40(a0)
        ld a3, 0(a1)
    8000015e:	6194                	ld	a3,0(a1)
        add a3, a3, a2
    80000160:	96b2                	add	a3,a3,a2
        sd a3, 0(a1)
    80000162:	e194                	sd	a3,0(a1)

        # raise a supervisor software interrupt.
	li a1, 2
    80000164:	4589                	li	a1,2
        csrw sip, a1
    80000166:	14459073          	csrw	sip,a1

        ld a3, 16(a0)
    8000016a:	6914                	ld	a3,16(a0)
        ld a2, 8(a0)
    8000016c:	6510                	ld	a2,8(a0)
        ld a1, 0(a0)
    8000016e:	610c                	ld	a1,0(a0)
        csrrw a0, mscratch, a0
    80000170:	34051573          	csrrw	a0,mscratch,a0

        mret
    80000174:	30200073          	mret
	...

000000008000017a <handle_interrupt>:
#define MTIME (volatile unsigned long long int *)(CLINT_BASE + 0xbff8)
#define MTIMECMP (volatile unsigned long long int *)(CLINT_BASE + 0x4000)

int count = 0;

void handle_interrupt(uint64_t mcause) {
    8000017a:	7179                	addi	sp,sp,-48
    8000017c:	f406                	sd	ra,40(sp)
    8000017e:	f022                	sd	s0,32(sp)
    80000180:	1800                	addi	s0,sp,48
    80000182:	fca43c23          	sd	a0,-40(s0)
    if ((mcause << 1 >> 1) == 0x7) {
    80000186:	fd843703          	ld	a4,-40(s0)
    8000018a:	57fd                	li	a5,-1
    8000018c:	8385                	srli	a5,a5,0x1
    8000018e:	8f7d                	and	a4,a4,a5
    80000190:	479d                	li	a5,7
    80000192:	08f71663          	bne	a4,a5,8000021e <handle_interrupt+0xa4>
        print_s("Timer Interrupt: ");
    80000196:	00000517          	auipc	a0,0x0
    8000019a:	63250513          	addi	a0,a0,1586 # 800007c8 <timer_init+0x44>
    8000019e:	28a000ef          	jal	80000428 <print_s>
        print_i(++count);
    800001a2:	00001797          	auipc	a5,0x1
    800001a6:	e5e78793          	addi	a5,a5,-418 # 80001000 <count>
    800001aa:	439c                	lw	a5,0(a5)
    800001ac:	2785                	addiw	a5,a5,1
    800001ae:	0007871b          	sext.w	a4,a5
    800001b2:	00001797          	auipc	a5,0x1
    800001b6:	e4e78793          	addi	a5,a5,-434 # 80001000 <count>
    800001ba:	c398                	sw	a4,0(a5)
    800001bc:	00001797          	auipc	a5,0x1
    800001c0:	e4478793          	addi	a5,a5,-444 # 80001000 <count>
    800001c4:	439c                	lw	a5,0(a5)
    800001c6:	853e                	mv	a0,a5
    800001c8:	2d2000ef          	jal	8000049a <print_i>
        print_s("\n");
    800001cc:	00000517          	auipc	a0,0x0
    800001d0:	61450513          	addi	a0,a0,1556 # 800007e0 <timer_init+0x5c>
    800001d4:	254000ef          	jal	80000428 <print_s>

        *MTIMECMP = *MTIME + 0xfffff * 5;
    800001d8:	0200c7b7          	lui	a5,0x200c
    800001dc:	17e1                	addi	a5,a5,-8 # 200bff8 <STACK_SIZE+0x200b078>
    800001de:	6394                	ld	a3,0(a5)
    800001e0:	020047b7          	lui	a5,0x2004
    800001e4:	00500737          	lui	a4,0x500
    800001e8:	176d                	addi	a4,a4,-5 # 4ffffb <STACK_SIZE+0x4ff07b>
    800001ea:	9736                	add	a4,a4,a3
    800001ec:	e398                	sd	a4,0(a5)
        if (count == 10) {
    800001ee:	00001797          	auipc	a5,0x1
    800001f2:	e1278793          	addi	a5,a5,-494 # 80001000 <count>
    800001f6:	439c                	lw	a5,0(a5)
    800001f8:	873e                	mv	a4,a5
    800001fa:	47a9                	li	a5,10
    800001fc:	04f71763          	bne	a4,a5,8000024a <handle_interrupt+0xd0>
            unsigned long long int mie;
            asm volatile("csrr %0, mie" : "=r"(mie));
    80000200:	304027f3          	csrr	a5,mie
    80000204:	fef43423          	sd	a5,-24(s0)
            mie &= ~(1 << 7);
    80000208:	fe843783          	ld	a5,-24(s0)
    8000020c:	f7f7f793          	andi	a5,a5,-129
    80000210:	fef43423          	sd	a5,-24(s0)
            asm volatile("csrw mie, %0" : "=r"(mie));
    80000214:	30479073          	csrw	mie,a5
    80000218:	fef43423          	sd	a5,-24(s0)
        print_i(mcause << 1 >> 1);
        print_s("\n");
        while (1)
            ;
    }
}
    8000021c:	a03d                	j	8000024a <handle_interrupt+0xd0>
        print_s("Unknown interrupt: ");
    8000021e:	00000517          	auipc	a0,0x0
    80000222:	5ca50513          	addi	a0,a0,1482 # 800007e8 <timer_init+0x64>
    80000226:	202000ef          	jal	80000428 <print_s>
        print_i(mcause << 1 >> 1);
    8000022a:	fd843703          	ld	a4,-40(s0)
    8000022e:	57fd                	li	a5,-1
    80000230:	8385                	srli	a5,a5,0x1
    80000232:	8ff9                	and	a5,a5,a4
    80000234:	853e                	mv	a0,a5
    80000236:	264000ef          	jal	8000049a <print_i>
        print_s("\n");
    8000023a:	00000517          	auipc	a0,0x0
    8000023e:	5a650513          	addi	a0,a0,1446 # 800007e0 <timer_init+0x5c>
    80000242:	1e6000ef          	jal	80000428 <print_s>
        while (1)
    80000246:	0001                	nop
    80000248:	bffd                	j	80000246 <handle_interrupt+0xcc>
}
    8000024a:	0001                	nop
    8000024c:	70a2                	ld	ra,40(sp)
    8000024e:	7402                	ld	s0,32(sp)
    80000250:	6145                	addi	sp,sp,48
    80000252:	8082                	ret

0000000080000254 <handle_exception>:

void handle_exception(uint64_t mcause) {
    80000254:	7179                	addi	sp,sp,-48
    80000256:	f406                	sd	ra,40(sp)
    80000258:	f022                	sd	s0,32(sp)
    8000025a:	1800                	addi	s0,sp,48
    8000025c:	fca43c23          	sd	a0,-40(s0)
    unsigned long long int mie;

    if (mcause == 0x8) {
    80000260:	fd843703          	ld	a4,-40(s0)
    80000264:	47a1                	li	a5,8
    80000266:	02f71c63          	bne	a4,a5,8000029e <handle_exception+0x4a>
        *MTIMECMP = *MTIME + 0xfffff * 5;
    8000026a:	0200c7b7          	lui	a5,0x200c
    8000026e:	17e1                	addi	a5,a5,-8 # 200bff8 <STACK_SIZE+0x200b078>
    80000270:	6394                	ld	a3,0(a5)
    80000272:	020047b7          	lui	a5,0x2004
    80000276:	00500737          	lui	a4,0x500
    8000027a:	176d                	addi	a4,a4,-5 # 4ffffb <STACK_SIZE+0x4ff07b>
    8000027c:	9736                	add	a4,a4,a3
    8000027e:	e398                	sd	a4,0(a5)

        asm volatile("csrr %0, mie" : "=r"(mie));
    80000280:	304027f3          	csrr	a5,mie
    80000284:	fef43423          	sd	a5,-24(s0)
        mie |= (1 << 7);
    80000288:	fe843783          	ld	a5,-24(s0)
    8000028c:	0807e793          	ori	a5,a5,128
    80000290:	fef43423          	sd	a5,-24(s0)
        asm volatile("csrw mie, %0" : "=r"(mie));
    80000294:	30479073          	csrw	mie,a5
    80000298:	fef43423          	sd	a5,-24(s0)
        print_i(mcause << 1 >> 1);
        print_s("\n");
        while (1)
            ;
    }
}
    8000029c:	a03d                	j	800002ca <handle_exception+0x76>
        print_s("Unknown exception: ");
    8000029e:	00000517          	auipc	a0,0x0
    800002a2:	56250513          	addi	a0,a0,1378 # 80000800 <timer_init+0x7c>
    800002a6:	182000ef          	jal	80000428 <print_s>
        print_i(mcause << 1 >> 1);
    800002aa:	fd843703          	ld	a4,-40(s0)
    800002ae:	57fd                	li	a5,-1
    800002b0:	8385                	srli	a5,a5,0x1
    800002b2:	8ff9                	and	a5,a5,a4
    800002b4:	853e                	mv	a0,a5
    800002b6:	1e4000ef          	jal	8000049a <print_i>
        print_s("\n");
    800002ba:	00000517          	auipc	a0,0x0
    800002be:	52650513          	addi	a0,a0,1318 # 800007e0 <timer_init+0x5c>
    800002c2:	166000ef          	jal	80000428 <print_s>
        while (1)
    800002c6:	0001                	nop
    800002c8:	bffd                	j	800002c6 <handle_exception+0x72>
}
    800002ca:	70a2                	ld	ra,40(sp)
    800002cc:	7402                	ld	s0,32(sp)
    800002ce:	6145                	addi	sp,sp,48
    800002d0:	8082                	ret

00000000800002d2 <handle_trap>:

void handle_trap() {
    800002d2:	1101                	addi	sp,sp,-32
    800002d4:	ec06                	sd	ra,24(sp)
    800002d6:	e822                	sd	s0,16(sp)
    800002d8:	1000                	addi	s0,sp,32
    uint64_t mcause, mepc;
    asm volatile("csrr %0, mcause" : "=r"(mcause));
    800002da:	342027f3          	csrr	a5,mcause
    800002de:	fef43423          	sd	a5,-24(s0)
    asm volatile("csrr %0, mepc" : "=r"(mepc));
    800002e2:	341027f3          	csrr	a5,mepc
    800002e6:	fef43023          	sd	a5,-32(s0)

    if (mcause >> 63) {
    800002ea:	fe843783          	ld	a5,-24(s0)
    800002ee:	0007d763          	bgez	a5,800002fc <handle_trap+0x2a>
        handle_interrupt(mcause);
    800002f2:	fe843503          	ld	a0,-24(s0)
    800002f6:	e85ff0ef          	jal	8000017a <handle_interrupt>
        handle_exception(mcause);
        asm volatile("csrr t0, mepc");
        asm volatile("addi t0, t0, 0x4");
        asm volatile("csrw mepc, t0");
    }
}
    800002fa:	a811                	j	8000030e <handle_trap+0x3c>
        handle_exception(mcause);
    800002fc:	fe843503          	ld	a0,-24(s0)
    80000300:	f55ff0ef          	jal	80000254 <handle_exception>
        asm volatile("csrr t0, mepc");
    80000304:	341022f3          	csrr	t0,mepc
        asm volatile("addi t0, t0, 0x4");
    80000308:	0291                	addi	t0,t0,4
        asm volatile("csrw mepc, t0");
    8000030a:	34129073          	csrw	mepc,t0
}
    8000030e:	0001                	nop
    80000310:	60e2                	ld	ra,24(sp)
    80000312:	6442                	ld	s0,16(sp)
    80000314:	6105                	addi	sp,sp,32
    80000316:	8082                	ret

0000000080000318 <uart_init>:

#include "uart.h"

static volatile uint8_t *uart;

void uart_init() {
    80000318:	1101                	addi	sp,sp,-32
    8000031a:	ec22                	sd	s0,24(sp)
    8000031c:	1000                	addi	s0,sp,32
    uart = (uint8_t *)(void *)NS16550A_UART0_CTRL_ADDR;
    8000031e:	00001797          	auipc	a5,0x1
    80000322:	cea78793          	addi	a5,a5,-790 # 80001008 <uart>
    80000326:	10000737          	lui	a4,0x10000
    8000032a:	e398                	sd	a4,0(a5)
    uint32_t uart_freq = UART0_CLOCK_FREQ;
    8000032c:	001c27b7          	lui	a5,0x1c2
    80000330:	fef42623          	sw	a5,-20(s0)
    uint32_t baud_rate = UART0_BAUD_RATE;
    80000334:	67f1                	lui	a5,0x1c
    80000336:	20078793          	addi	a5,a5,512 # 1c200 <STACK_SIZE+0x1b280>
    8000033a:	fef42423          	sw	a5,-24(s0)
    uint32_t divisor = uart_freq / (16 * baud_rate);
    8000033e:	fe842783          	lw	a5,-24(s0)
    80000342:	0047979b          	slliw	a5,a5,0x4
    80000346:	2781                	sext.w	a5,a5
    80000348:	fec42703          	lw	a4,-20(s0)
    8000034c:	02f757bb          	divuw	a5,a4,a5
    80000350:	fef42223          	sw	a5,-28(s0)
    uart[UART_LCR] = UART_LCR_DLAB;
    80000354:	00001797          	auipc	a5,0x1
    80000358:	cb478793          	addi	a5,a5,-844 # 80001008 <uart>
    8000035c:	639c                	ld	a5,0(a5)
    8000035e:	078d                	addi	a5,a5,3
    80000360:	f8000713          	li	a4,-128
    80000364:	00e78023          	sb	a4,0(a5)
    uart[UART_DLL] = divisor & 0xff;
    80000368:	00001797          	auipc	a5,0x1
    8000036c:	ca078793          	addi	a5,a5,-864 # 80001008 <uart>
    80000370:	639c                	ld	a5,0(a5)
    80000372:	fe442703          	lw	a4,-28(s0)
    80000376:	0ff77713          	zext.b	a4,a4
    8000037a:	00e78023          	sb	a4,0(a5)
    uart[UART_DLM] = (divisor >> 8) & 0xff;
    8000037e:	fe442783          	lw	a5,-28(s0)
    80000382:	0087d79b          	srliw	a5,a5,0x8
    80000386:	0007871b          	sext.w	a4,a5
    8000038a:	00001797          	auipc	a5,0x1
    8000038e:	c7e78793          	addi	a5,a5,-898 # 80001008 <uart>
    80000392:	639c                	ld	a5,0(a5)
    80000394:	0785                	addi	a5,a5,1
    80000396:	0ff77713          	zext.b	a4,a4
    8000039a:	00e78023          	sb	a4,0(a5)
    uart[UART_LCR] = UART_LCR_PODD | UART_LCR_8BIT;
    8000039e:	00001797          	auipc	a5,0x1
    800003a2:	c6a78793          	addi	a5,a5,-918 # 80001008 <uart>
    800003a6:	639c                	ld	a5,0(a5)
    800003a8:	078d                	addi	a5,a5,3
    800003aa:	472d                	li	a4,11
    800003ac:	00e78023          	sb	a4,0(a5)
}
    800003b0:	0001                	nop
    800003b2:	6462                	ld	s0,24(sp)
    800003b4:	6105                	addi	sp,sp,32
    800003b6:	8082                	ret

00000000800003b8 <ns16550a_putchar>:

static int ns16550a_putchar(int ch) {
    800003b8:	1101                	addi	sp,sp,-32
    800003ba:	ec22                	sd	s0,24(sp)
    800003bc:	1000                	addi	s0,sp,32
    800003be:	87aa                	mv	a5,a0
    800003c0:	fef42623          	sw	a5,-20(s0)
    while ((uart[UART_LSR] & UART_LSR_RI) == 0)
    800003c4:	0001                	nop
    800003c6:	00001797          	auipc	a5,0x1
    800003ca:	c4278793          	addi	a5,a5,-958 # 80001008 <uart>
    800003ce:	639c                	ld	a5,0(a5)
    800003d0:	0795                	addi	a5,a5,5
    800003d2:	0007c783          	lbu	a5,0(a5)
    800003d6:	0ff7f793          	zext.b	a5,a5
    800003da:	2781                	sext.w	a5,a5
    800003dc:	0407f793          	andi	a5,a5,64
    800003e0:	2781                	sext.w	a5,a5
    800003e2:	d3f5                	beqz	a5,800003c6 <ns16550a_putchar+0xe>
        ;
    return uart[UART_THR] = ch & 0xff;
    800003e4:	00001797          	auipc	a5,0x1
    800003e8:	c2478793          	addi	a5,a5,-988 # 80001008 <uart>
    800003ec:	6398                	ld	a4,0(a5)
    800003ee:	fec42783          	lw	a5,-20(s0)
    800003f2:	0ff7f793          	zext.b	a5,a5
    800003f6:	00f70023          	sb	a5,0(a4) # 10000000 <STACK_SIZE+0xffff080>
    800003fa:	2781                	sext.w	a5,a5
}
    800003fc:	853e                	mv	a0,a5
    800003fe:	6462                	ld	s0,24(sp)
    80000400:	6105                	addi	sp,sp,32
    80000402:	8082                	ret

0000000080000404 <uart_send>:

void uart_send(char c) { ns16550a_putchar(c); }
    80000404:	1101                	addi	sp,sp,-32
    80000406:	ec06                	sd	ra,24(sp)
    80000408:	e822                	sd	s0,16(sp)
    8000040a:	1000                	addi	s0,sp,32
    8000040c:	87aa                	mv	a5,a0
    8000040e:	fef407a3          	sb	a5,-17(s0)
    80000412:	fef44783          	lbu	a5,-17(s0)
    80000416:	2781                	sext.w	a5,a5
    80000418:	853e                	mv	a0,a5
    8000041a:	f9fff0ef          	jal	800003b8 <ns16550a_putchar>
    8000041e:	0001                	nop
    80000420:	60e2                	ld	ra,24(sp)
    80000422:	6442                	ld	s0,16(sp)
    80000424:	6105                	addi	sp,sp,32
    80000426:	8082                	ret

0000000080000428 <print_s>:

void print_s(const char *s) {
    80000428:	1101                	addi	sp,sp,-32
    8000042a:	ec06                	sd	ra,24(sp)
    8000042c:	e822                	sd	s0,16(sp)
    8000042e:	1000                	addi	s0,sp,32
    80000430:	fea43423          	sd	a0,-24(s0)
    while (*s != '\0') {
    80000434:	a03d                	j	80000462 <print_s+0x3a>
        /* convert newline to carrige return + newline */
        if (*s == '\n') uart_send('\r');
    80000436:	fe843783          	ld	a5,-24(s0)
    8000043a:	0007c783          	lbu	a5,0(a5)
    8000043e:	873e                	mv	a4,a5
    80000440:	47a9                	li	a5,10
    80000442:	00f71563          	bne	a4,a5,8000044c <print_s+0x24>
    80000446:	4535                	li	a0,13
    80000448:	fbdff0ef          	jal	80000404 <uart_send>
        uart_send(*s++);
    8000044c:	fe843783          	ld	a5,-24(s0)
    80000450:	00178713          	addi	a4,a5,1
    80000454:	fee43423          	sd	a4,-24(s0)
    80000458:	0007c783          	lbu	a5,0(a5)
    8000045c:	853e                	mv	a0,a5
    8000045e:	fa7ff0ef          	jal	80000404 <uart_send>
    while (*s != '\0') {
    80000462:	fe843783          	ld	a5,-24(s0)
    80000466:	0007c783          	lbu	a5,0(a5)
    8000046a:	f7f1                	bnez	a5,80000436 <print_s+0xe>
    }
}
    8000046c:	0001                	nop
    8000046e:	0001                	nop
    80000470:	60e2                	ld	ra,24(sp)
    80000472:	6442                	ld	s0,16(sp)
    80000474:	6105                	addi	sp,sp,32
    80000476:	8082                	ret

0000000080000478 <print_c>:

void print_c(char c) { uart_send(c); }
    80000478:	1101                	addi	sp,sp,-32
    8000047a:	ec06                	sd	ra,24(sp)
    8000047c:	e822                	sd	s0,16(sp)
    8000047e:	1000                	addi	s0,sp,32
    80000480:	87aa                	mv	a5,a0
    80000482:	fef407a3          	sb	a5,-17(s0)
    80000486:	fef44783          	lbu	a5,-17(s0)
    8000048a:	853e                	mv	a0,a5
    8000048c:	f79ff0ef          	jal	80000404 <uart_send>
    80000490:	0001                	nop
    80000492:	60e2                	ld	ra,24(sp)
    80000494:	6442                	ld	s0,16(sp)
    80000496:	6105                	addi	sp,sp,32
    80000498:	8082                	ret

000000008000049a <print_i>:

void print_i(unsigned long int x) {
    8000049a:	1101                	addi	sp,sp,-32
    8000049c:	ec06                	sd	ra,24(sp)
    8000049e:	e822                	sd	s0,16(sp)
    800004a0:	1000                	addi	s0,sp,32
    800004a2:	fea43423          	sd	a0,-24(s0)
    if (x < 0) {
        print_c('-');
        x = -x;
    }
    if (x >= 10) print_i(x / 10);
    800004a6:	fe843703          	ld	a4,-24(s0)
    800004aa:	47a5                	li	a5,9
    800004ac:	00e7fa63          	bgeu	a5,a4,800004c0 <print_i+0x26>
    800004b0:	fe843703          	ld	a4,-24(s0)
    800004b4:	47a9                	li	a5,10
    800004b6:	02f757b3          	divu	a5,a4,a5
    800004ba:	853e                	mv	a0,a5
    800004bc:	fdfff0ef          	jal	8000049a <print_i>
    print_c(x % 10 + '0');
    800004c0:	fe843703          	ld	a4,-24(s0)
    800004c4:	47a9                	li	a5,10
    800004c6:	02f777b3          	remu	a5,a4,a5
    800004ca:	0ff7f793          	zext.b	a5,a5
    800004ce:	0307879b          	addiw	a5,a5,48
    800004d2:	0ff7f793          	zext.b	a5,a5
    800004d6:	853e                	mv	a0,a5
    800004d8:	fa1ff0ef          	jal	80000478 <print_c>
}
    800004dc:	0001                	nop
    800004de:	60e2                	ld	ra,24(sp)
    800004e0:	6442                	ld	s0,16(sp)
    800004e2:	6105                	addi	sp,sp,32
    800004e4:	8082                	ret

00000000800004e6 <print_h>:

void print_h(unsigned long int d) {
    800004e6:	7179                	addi	sp,sp,-48
    800004e8:	f406                	sd	ra,40(sp)
    800004ea:	f022                	sd	s0,32(sp)
    800004ec:	1800                	addi	s0,sp,48
    800004ee:	fca43c23          	sd	a0,-40(s0)
    unsigned int n;
    int c;
    for (c = 28; c >= 0; c -= 4) {
    800004f2:	47f1                	li	a5,28
    800004f4:	fef42623          	sw	a5,-20(s0)
    800004f8:	a889                	j	8000054a <print_h+0x64>
        // get highest tetrad
        n = (d >> c) & 0xF;
    800004fa:	fec42783          	lw	a5,-20(s0)
    800004fe:	873e                	mv	a4,a5
    80000500:	fd843783          	ld	a5,-40(s0)
    80000504:	00e7d7b3          	srl	a5,a5,a4
    80000508:	2781                	sext.w	a5,a5
    8000050a:	8bbd                	andi	a5,a5,15
    8000050c:	fef42423          	sw	a5,-24(s0)
        // 0-9 => '0'-'9', 10-15 => 'A'-'F'
        n += n > 9 ? 0x37 : 0x30;
    80000510:	fe842783          	lw	a5,-24(s0)
    80000514:	0007871b          	sext.w	a4,a5
    80000518:	47a5                	li	a5,9
    8000051a:	00e7f563          	bgeu	a5,a4,80000524 <print_h+0x3e>
    8000051e:	03700793          	li	a5,55
    80000522:	a019                	j	80000528 <print_h+0x42>
    80000524:	03000793          	li	a5,48
    80000528:	fe842703          	lw	a4,-24(s0)
    8000052c:	9fb9                	addw	a5,a5,a4
    8000052e:	fef42423          	sw	a5,-24(s0)
        uart_send(n);
    80000532:	fe842783          	lw	a5,-24(s0)
    80000536:	0ff7f793          	zext.b	a5,a5
    8000053a:	853e                	mv	a0,a5
    8000053c:	ec9ff0ef          	jal	80000404 <uart_send>
    for (c = 28; c >= 0; c -= 4) {
    80000540:	fec42783          	lw	a5,-20(s0)
    80000544:	37f1                	addiw	a5,a5,-4
    80000546:	fef42623          	sw	a5,-20(s0)
    8000054a:	fec42783          	lw	a5,-20(s0)
    8000054e:	2781                	sext.w	a5,a5
    80000550:	fa07d5e3          	bgez	a5,800004fa <print_h+0x14>
    }
}
    80000554:	0001                	nop
    80000556:	0001                	nop
    80000558:	70a2                	ld	ra,40(sp)
    8000055a:	7402                	ld	s0,32(sp)
    8000055c:	6145                	addi	sp,sp,48
    8000055e:	8082                	ret

0000000080000560 <main>:
#include <timer.h>

#include "trap.h"
#include "uart.h"

int main() {
    80000560:	1141                	addi	sp,sp,-16
    80000562:	e406                	sd	ra,8(sp)
    80000564:	e022                	sd	s0,0(sp)
    80000566:	0800                	addi	s0,sp,16
    uart_init();
    80000568:	db1ff0ef          	jal	80000318 <uart_init>
    print_s("Hello world!\n");
    8000056c:	00000517          	auipc	a0,0x0
    80000570:	2ac50513          	addi	a0,a0,684 # 80000818 <timer_init+0x94>
    80000574:	eb5ff0ef          	jal	80000428 <print_s>
    print_s("Raise exception to enable timer...\n");
    80000578:	00000517          	auipc	a0,0x0
    8000057c:	2b050513          	addi	a0,a0,688 # 80000828 <timer_init+0xa4>
    80000580:	ea9ff0ef          	jal	80000428 <print_s>
    print_s("Back to user mode\n");
    80000584:	00000517          	auipc	a0,0x0
    80000588:	2cc50513          	addi	a0,a0,716 # 80000850 <timer_init+0xcc>
    8000058c:	e9dff0ef          	jal	80000428 <print_s>
    while(1){;}
    80000590:	0001                	nop
    80000592:	bffd                	j	80000590 <main+0x30>

0000000080000594 <r_mhartid>:
void start() {
    // set M Previous Privilege mode to Supervisor, for mret.
    unsigned long x = r_mstatus();
    x &= ~MSTATUS_MPP_MASK;
    x |= MSTATUS_MPP_S;
    w_mstatus(x);
    80000594:	1101                	addi	sp,sp,-32
    80000596:	ec22                	sd	s0,24(sp)
    80000598:	1000                	addi	s0,sp,32

    // set M Exception Program Counter to main, for mret.
    8000059a:	f14027f3          	csrr	a5,mhartid
    8000059e:	fef43423          	sd	a5,-24(s0)
    // requires gcc -mcmodel=medany
    800005a2:	fe843783          	ld	a5,-24(s0)
    w_mepc((uint64_t)main);
    800005a6:	853e                	mv	a0,a5
    800005a8:	6462                	ld	s0,24(sp)
    800005aa:	6105                	addi	sp,sp,32
    800005ac:	8082                	ret

00000000800005ae <r_mstatus>:

    // disable paging for now.
    800005ae:	1101                	addi	sp,sp,-32
    800005b0:	ec22                	sd	s0,24(sp)
    800005b2:	1000                	addi	s0,sp,32
    w_satp(0);

    800005b4:	300027f3          	csrr	a5,mstatus
    800005b8:	fef43423          	sd	a5,-24(s0)
    // physical memory protection
    800005bc:	fe843783          	ld	a5,-24(s0)
    w_pmpcfg0(0xf);
    800005c0:	853e                	mv	a0,a5
    800005c2:	6462                	ld	s0,24(sp)
    800005c4:	6105                	addi	sp,sp,32
    800005c6:	8082                	ret

00000000800005c8 <w_mstatus>:
    w_pmpaddr0(0xffffffffffffffff);

    800005c8:	1101                	addi	sp,sp,-32
    800005ca:	ec22                	sd	s0,24(sp)
    800005cc:	1000                	addi	s0,sp,32
    800005ce:	fea43423          	sd	a0,-24(s0)
    // delegate all interrupts and exceptions to supervisor mode.
    800005d2:	fe843783          	ld	a5,-24(s0)
    800005d6:	30079073          	csrw	mstatus,a5
    w_medeleg(0xffff);
    800005da:	0001                	nop
    800005dc:	6462                	ld	s0,24(sp)
    800005de:	6105                	addi	sp,sp,32
    800005e0:	8082                	ret

00000000800005e2 <w_mepc>:
    w_mideleg(0xffff);

    // setup trap_entry
    w_mtvec((uint64_t)trap_entry);

    800005e2:	1101                	addi	sp,sp,-32
    800005e4:	ec22                	sd	s0,24(sp)
    800005e6:	1000                	addi	s0,sp,32
    800005e8:	fea43423          	sd	a0,-24(s0)
    // keep each CPU's hartid in its tp register, for cpuid().
    800005ec:	fe843783          	ld	a5,-24(s0)
    800005f0:	34179073          	csrw	mepc,a5
    int id = r_mhartid();
    800005f4:	0001                	nop
    800005f6:	6462                	ld	s0,24(sp)
    800005f8:	6105                	addi	sp,sp,32
    800005fa:	8082                	ret

00000000800005fc <w_pmpcfg0>:
    800005fc:	1101                	addi	sp,sp,-32
    800005fe:	ec22                	sd	s0,24(sp)
    80000600:	1000                	addi	s0,sp,32
    80000602:	fea43423          	sd	a0,-24(s0)
    80000606:	fe843783          	ld	a5,-24(s0)
    8000060a:	3a079073          	csrw	pmpcfg0,a5
    8000060e:	0001                	nop
    80000610:	6462                	ld	s0,24(sp)
    80000612:	6105                	addi	sp,sp,32
    80000614:	8082                	ret

0000000080000616 <w_pmpaddr0>:
    80000616:	1101                	addi	sp,sp,-32
    80000618:	ec22                	sd	s0,24(sp)
    8000061a:	1000                	addi	s0,sp,32
    8000061c:	fea43423          	sd	a0,-24(s0)
    80000620:	fe843783          	ld	a5,-24(s0)
    80000624:	3b079073          	csrw	pmpaddr0,a5
    80000628:	0001                	nop
    8000062a:	6462                	ld	s0,24(sp)
    8000062c:	6105                	addi	sp,sp,32
    8000062e:	8082                	ret

0000000080000630 <w_medeleg>:
    80000630:	1101                	addi	sp,sp,-32
    80000632:	ec22                	sd	s0,24(sp)
    80000634:	1000                	addi	s0,sp,32
    80000636:	fea43423          	sd	a0,-24(s0)
    8000063a:	fe843783          	ld	a5,-24(s0)
    8000063e:	30279073          	csrw	medeleg,a5
    80000642:	0001                	nop
    80000644:	6462                	ld	s0,24(sp)
    80000646:	6105                	addi	sp,sp,32
    80000648:	8082                	ret

000000008000064a <w_mideleg>:
    8000064a:	1101                	addi	sp,sp,-32
    8000064c:	ec22                	sd	s0,24(sp)
    8000064e:	1000                	addi	s0,sp,32
    80000650:	fea43423          	sd	a0,-24(s0)
    80000654:	fe843783          	ld	a5,-24(s0)
    80000658:	30379073          	csrw	mideleg,a5
    8000065c:	0001                	nop
    8000065e:	6462                	ld	s0,24(sp)
    80000660:	6105                	addi	sp,sp,32
    80000662:	8082                	ret

0000000080000664 <w_mtvec>:
    80000664:	1101                	addi	sp,sp,-32
    80000666:	ec22                	sd	s0,24(sp)
    80000668:	1000                	addi	s0,sp,32
    8000066a:	fea43423          	sd	a0,-24(s0)
    8000066e:	fe843783          	ld	a5,-24(s0)
    80000672:	30579073          	csrw	mtvec,a5
    80000676:	0001                	nop
    80000678:	6462                	ld	s0,24(sp)
    8000067a:	6105                	addi	sp,sp,32
    8000067c:	8082                	ret

000000008000067e <w_satp>:
    8000067e:	1101                	addi	sp,sp,-32
    80000680:	ec22                	sd	s0,24(sp)
    80000682:	1000                	addi	s0,sp,32
    80000684:	fea43423          	sd	a0,-24(s0)
    80000688:	fe843783          	ld	a5,-24(s0)
    8000068c:	18079073          	csrw	satp,a5
    80000690:	0001                	nop
    80000692:	6462                	ld	s0,24(sp)
    80000694:	6105                	addi	sp,sp,32
    80000696:	8082                	ret

0000000080000698 <w_tp>:
    80000698:	1101                	addi	sp,sp,-32
    8000069a:	ec22                	sd	s0,24(sp)
    8000069c:	1000                	addi	s0,sp,32
    8000069e:	fea43423          	sd	a0,-24(s0)
    800006a2:	fe843783          	ld	a5,-24(s0)
    800006a6:	823e                	mv	tp,a5
    800006a8:	0001                	nop
    800006aa:	6462                	ld	s0,24(sp)
    800006ac:	6105                	addi	sp,sp,32
    800006ae:	8082                	ret

00000000800006b0 <start>:
void start() {
    800006b0:	1101                	addi	sp,sp,-32
    800006b2:	ec06                	sd	ra,24(sp)
    800006b4:	e822                	sd	s0,16(sp)
    800006b6:	1000                	addi	s0,sp,32
    unsigned long x = r_mstatus();
    800006b8:	ef7ff0ef          	jal	800005ae <r_mstatus>
    800006bc:	fea43423          	sd	a0,-24(s0)
    x &= ~MSTATUS_MPP_MASK;
    800006c0:	fe843703          	ld	a4,-24(s0)
    800006c4:	77f9                	lui	a5,0xffffe
    800006c6:	7ff78793          	addi	a5,a5,2047 # ffffffffffffe7ff <end+0xffffffff7fff57ef>
    800006ca:	8ff9                	and	a5,a5,a4
    800006cc:	fef43423          	sd	a5,-24(s0)
    x |= MSTATUS_MPP_S;
    800006d0:	fe843703          	ld	a4,-24(s0)
    800006d4:	6785                	lui	a5,0x1
    800006d6:	80078793          	addi	a5,a5,-2048 # 800 <REGBYTES+0x7f8>
    800006da:	8fd9                	or	a5,a5,a4
    800006dc:	fef43423          	sd	a5,-24(s0)
    w_mstatus(x);
    800006e0:	fe843503          	ld	a0,-24(s0)
    800006e4:	ee5ff0ef          	jal	800005c8 <w_mstatus>
    w_mepc((uint64_t)main);
    800006e8:	00000797          	auipc	a5,0x0
    800006ec:	e7878793          	addi	a5,a5,-392 # 80000560 <main>
    800006f0:	853e                	mv	a0,a5
    800006f2:	ef1ff0ef          	jal	800005e2 <w_mepc>
    w_satp(0);
    800006f6:	4501                	li	a0,0
    800006f8:	f87ff0ef          	jal	8000067e <w_satp>
    w_pmpcfg0(0xf);
    800006fc:	453d                	li	a0,15
    800006fe:	effff0ef          	jal	800005fc <w_pmpcfg0>
    w_pmpaddr0(0xffffffffffffffff);
    80000702:	557d                	li	a0,-1
    80000704:	f13ff0ef          	jal	80000616 <w_pmpaddr0>
    w_medeleg(0xffff);
    80000708:	67c1                	lui	a5,0x10
    8000070a:	fff78513          	addi	a0,a5,-1 # ffff <STACK_SIZE+0xf07f>
    8000070e:	f23ff0ef          	jal	80000630 <w_medeleg>
    w_mideleg(0xffff);
    80000712:	67c1                	lui	a5,0x10
    80000714:	fff78513          	addi	a0,a5,-1 # ffff <STACK_SIZE+0xf07f>
    80000718:	f33ff0ef          	jal	8000064a <w_mideleg>
    w_mtvec((uint64_t)trap_entry);
    8000071c:	00000797          	auipc	a5,0x0
    80000720:	9a478793          	addi	a5,a5,-1628 # 800000c0 <trap_entry>
    80000724:	853e                	mv	a0,a5
    80000726:	f3fff0ef          	jal	80000664 <w_mtvec>
    int id = r_mhartid();
    8000072a:	e6bff0ef          	jal	80000594 <r_mhartid>
    8000072e:	87aa                	mv	a5,a0
    80000730:	fef42223          	sw	a5,-28(s0)
    w_tp(id);
    80000734:	fe442783          	lw	a5,-28(s0)
    80000738:	853e                	mv	a0,a5
    8000073a:	f5fff0ef          	jal	80000698 <w_tp>
    timer_init();
    8000073e:	046000ef          	jal	80000784 <timer_init>
    asm volatile("j main");
    80000742:	e1fff06f          	j	80000560 <main>
}
    80000746:	0001                	nop
    80000748:	60e2                	ld	ra,24(sp)
    8000074a:	6442                	ld	s0,16(sp)
    8000074c:	6105                	addi	sp,sp,32
    8000074e:	8082                	ret

0000000080000750 <r_mie>:
    80000750:	1101                	addi	sp,sp,-32
    80000752:	ec22                	sd	s0,24(sp)
    80000754:	1000                	addi	s0,sp,32
    80000756:	304027f3          	csrr	a5,mie
    8000075a:	fef43423          	sd	a5,-24(s0)
    8000075e:	fe843783          	ld	a5,-24(s0)
    80000762:	853e                	mv	a0,a5
    80000764:	6462                	ld	s0,24(sp)
    80000766:	6105                	addi	sp,sp,32
    80000768:	8082                	ret

000000008000076a <w_mie>:
    8000076a:	1101                	addi	sp,sp,-32
    8000076c:	ec22                	sd	s0,24(sp)
    8000076e:	1000                	addi	s0,sp,32
    80000770:	fea43423          	sd	a0,-24(s0)
    80000774:	fe843783          	ld	a5,-24(s0)
    80000778:	30479073          	csrw	mie,a5
    8000077c:	0001                	nop
    8000077e:	6462                	ld	s0,24(sp)
    80000780:	6105                	addi	sp,sp,32
    80000782:	8082                	ret

0000000080000784 <timer_init>:
void timer_init() {
    80000784:	1101                	addi	sp,sp,-32
    80000786:	ec06                	sd	ra,24(sp)
    80000788:	e822                	sd	s0,16(sp)
    8000078a:	1000                	addi	s0,sp,32
    *MTIMECMP = *MTIME + 0xfffff * 5;
    8000078c:	0200c7b7          	lui	a5,0x200c
    80000790:	17e1                	addi	a5,a5,-8 # 200bff8 <STACK_SIZE+0x200b078>
    80000792:	6394                	ld	a3,0(a5)
    80000794:	020047b7          	lui	a5,0x2004
    80000798:	00500737          	lui	a4,0x500
    8000079c:	176d                	addi	a4,a4,-5 # 4ffffb <STACK_SIZE+0x4ff07b>
    8000079e:	9736                	add	a4,a4,a3
    800007a0:	e398                	sd	a4,0(a5)
    uint64_t mie = r_mie();
    800007a2:	fafff0ef          	jal	80000750 <r_mie>
    800007a6:	fea43423          	sd	a0,-24(s0)
    mie |= (1 << 7);
    800007aa:	fe843783          	ld	a5,-24(s0)
    800007ae:	0807e793          	ori	a5,a5,128
    800007b2:	fef43423          	sd	a5,-24(s0)
    w_mie(mie);
    800007b6:	fe843503          	ld	a0,-24(s0)
    800007ba:	fb1ff0ef          	jal	8000076a <w_mie>
}
    800007be:	0001                	nop
    800007c0:	60e2                	ld	ra,24(sp)
    800007c2:	6442                	ld	s0,16(sp)
    800007c4:	6105                	addi	sp,sp,32
    800007c6:	8082                	ret

Disassembly of section .rodata:

00000000800007c8 <etext-0x838>:
    800007c8:	6954                	ld	a3,144(a0)
    800007ca:	656d                	lui	a0,0x1b
    800007cc:	2072                	fld	ft0,280(sp)
    800007ce:	6e49                	lui	t3,0x12
    800007d0:	6574                	ld	a3,200(a0)
    800007d2:	7272                	ld	tp,312(sp)
    800007d4:	7075                	c.lui	zero,0xffffd
    800007d6:	3a74                	fld	fa3,240(a2)
    800007d8:	0020                	addi	s0,sp,8
    800007da:	0000                	unimp
    800007dc:	0000                	unimp
    800007de:	0000                	unimp
    800007e0:	000a                	c.slli	zero,0x2
    800007e2:	0000                	unimp
    800007e4:	0000                	unimp
    800007e6:	0000                	unimp
    800007e8:	6e55                	lui	t3,0x15
    800007ea:	776f6e6b          	.insn	4, 0x776f6e6b
    800007ee:	206e                	fld	ft0,216(sp)
    800007f0:	6e69                	lui	t3,0x1a
    800007f2:	6574                	ld	a3,200(a0)
    800007f4:	7272                	ld	tp,312(sp)
    800007f6:	7075                	c.lui	zero,0xffffd
    800007f8:	3a74                	fld	fa3,240(a2)
    800007fa:	0020                	addi	s0,sp,8
    800007fc:	0000                	unimp
    800007fe:	0000                	unimp
    80000800:	6e55                	lui	t3,0x15
    80000802:	776f6e6b          	.insn	4, 0x776f6e6b
    80000806:	206e                	fld	ft0,216(sp)
    80000808:	7865                	lui	a6,0xffff9
    8000080a:	74706563          	bltu	zero,t2,80000f54 <timer_init+0x7d0>
    8000080e:	6f69                	lui	t5,0x1a
    80000810:	3a6e                	fld	fs4,248(sp)
    80000812:	0020                	addi	s0,sp,8
    80000814:	0000                	unimp
    80000816:	0000                	unimp
    80000818:	6548                	ld	a0,136(a0)
    8000081a:	6c6c                	ld	a1,216(s0)
    8000081c:	6f77206f          	j	80073712 <end+0x6a702>
    80000820:	6c72                	ld	s8,280(sp)
    80000822:	2164                	fld	fs1,192(a0)
    80000824:	000a                	c.slli	zero,0x2
    80000826:	0000                	unimp
    80000828:	6152                	ld	sp,272(sp)
    8000082a:	7369                	lui	t1,0xffffa
    8000082c:	2065                	.insn	2, 0x2065
    8000082e:	7865                	lui	a6,0xffff9
    80000830:	74706563          	bltu	zero,t2,80000f7a <timer_init+0x7f6>
    80000834:	6f69                	lui	t5,0x1a
    80000836:	206e                	fld	ft0,216(sp)
    80000838:	6f74                	ld	a3,216(a4)
    8000083a:	6520                	ld	s0,72(a0)
    8000083c:	616e                	ld	sp,216(sp)
    8000083e:	6c62                	ld	s8,24(sp)
    80000840:	2065                	.insn	2, 0x2065
    80000842:	6974                	ld	a3,208(a0)
    80000844:	656d                	lui	a0,0x1b
    80000846:	2e72                	fld	ft8,280(sp)
    80000848:	2e2e                	fld	ft8,200(sp)
    8000084a:	000a                	c.slli	zero,0x2
    8000084c:	0000                	unimp
    8000084e:	0000                	unimp
    80000850:	6142                	ld	sp,16(sp)
    80000852:	74206b63          	bltu	zero,sp,80000fa8 <timer_init+0x824>
    80000856:	7375206f          	j	8005378c <end+0x4a77c>
    8000085a:	7265                	lui	tp,0xffff9
    8000085c:	6d20                	ld	s0,88(a0)
    8000085e:	0a65646f          	jal	s0,80056904 <end+0x4d8f4>
	...

Disassembly of section .eh_frame:

0000000080000868 <.eh_frame>:
    80000868:	0010                	.insn	2, 0x0010
    8000086a:	0000                	unimp
    8000086c:	0000                	unimp
    8000086e:	0000                	unimp
    80000870:	00527a03          	.insn	4, 0x00527a03
    80000874:	7c01                	lui	s8,0xfffe0
    80000876:	0101                	addi	sp,sp,0
    80000878:	00020d1b          	sext.w	s10,tp
    8000087c:	0024                	addi	s1,sp,8
    8000087e:	0000                	unimp
    80000880:	0018                	.insn	2, 0x0018
    80000882:	0000                	unimp
    80000884:	f8f6                	sd	t4,112(sp)
    80000886:	ffff                	.insn	2, 0xffff
    80000888:	00da                	slli	ra,ra,0x16
    8000088a:	0000                	unimp
    8000088c:	4200                	lw	s0,0(a2)
    8000088e:	300e                	fld	ft0,224(sp)
    80000890:	8144                	.insn	2, 0x8144
    80000892:	8802                	jr	a6
    80000894:	4204                	lw	s1,0(a2)
    80000896:	080c                	addi	a1,sp,16
    80000898:	0200                	addi	s0,sp,256
    8000089a:	c1cc                	sw	a1,4(a1)
    8000089c:	c842                	sw	a6,16(sp)
    8000089e:	020c                	addi	a1,sp,256
    800008a0:	4230                	lw	a2,64(a2)
    800008a2:	000e                	c.slli	zero,0x3
    800008a4:	0024                	addi	s1,sp,8
    800008a6:	0000                	unimp
    800008a8:	0040                	addi	s0,sp,4
    800008aa:	0000                	unimp
    800008ac:	f9a8                	sd	a0,112(a1)
    800008ae:	ffff                	.insn	2, 0xffff
    800008b0:	007e                	c.slli	zero,0x1f
    800008b2:	0000                	unimp
    800008b4:	4200                	lw	s0,0(a2)
    800008b6:	300e                	fld	ft0,224(sp)
    800008b8:	8144                	.insn	2, 0x8144
    800008ba:	8802                	jr	a6
    800008bc:	4204                	lw	s1,0(a2)
    800008be:	080c                	addi	a1,sp,16
    800008c0:	0200                	addi	s0,sp,256
    800008c2:	c170                	sw	a2,68(a0)
    800008c4:	c842                	sw	a6,16(sp)
    800008c6:	020c                	addi	a1,sp,256
    800008c8:	4230                	lw	a2,64(a2)
    800008ca:	000e                	c.slli	zero,0x3
    800008cc:	0028                	addi	a0,sp,8
    800008ce:	0000                	unimp
    800008d0:	0068                	addi	a0,sp,12
    800008d2:	0000                	unimp
    800008d4:	f9fe                	sd	t6,240(sp)
    800008d6:	ffff                	.insn	2, 0xffff
    800008d8:	0046                	c.slli	zero,0x11
    800008da:	0000                	unimp
    800008dc:	4200                	lw	s0,0(a2)
    800008de:	200e                	fld	ft0,192(sp)
    800008e0:	8144                	.insn	2, 0x8144
    800008e2:	8802                	jr	a6
    800008e4:	4204                	lw	s1,0(a2)
    800008e6:	080c                	addi	a1,sp,16
    800008e8:	0200                	addi	s0,sp,256
    800008ea:	c138                	sw	a4,64(a0)
    800008ec:	c842                	sw	a6,16(sp)
    800008ee:	020c                	addi	a1,sp,256
    800008f0:	4220                	lw	s0,64(a2)
    800008f2:	000e                	c.slli	zero,0x3
    800008f4:	0000                	unimp
    800008f6:	0000                	unimp
    800008f8:	0020                	addi	s0,sp,8
    800008fa:	0000                	unimp
    800008fc:	0094                	addi	a3,sp,64
    800008fe:	0000                	unimp
    80000900:	fa18                	sd	a4,48(a2)
    80000902:	ffff                	.insn	2, 0xffff
    80000904:	00a0                	addi	s0,sp,72
    80000906:	0000                	unimp
    80000908:	4200                	lw	s0,0(a2)
    8000090a:	200e                	fld	ft0,192(sp)
    8000090c:	8842                	mv	a6,a6
    8000090e:	4202                	lw	tp,0(sp)
    80000910:	080c                	addi	a1,sp,16
    80000912:	0200                	addi	s0,sp,256
    80000914:	c896                	sw	t0,80(sp)
    80000916:	020c                	addi	a1,sp,256
    80000918:	4220                	lw	s0,64(a2)
    8000091a:	000e                	c.slli	zero,0x3
    8000091c:	0020                	addi	s0,sp,8
    8000091e:	0000                	unimp
    80000920:	00b8                	addi	a4,sp,72
    80000922:	0000                	unimp
    80000924:	fa94                	sd	a3,48(a3)
    80000926:	ffff                	.insn	2, 0xffff
    80000928:	004c                	addi	a1,sp,4
    8000092a:	0000                	unimp
    8000092c:	4200                	lw	s0,0(a2)
    8000092e:	200e                	fld	ft0,192(sp)
    80000930:	8842                	mv	a6,a6
    80000932:	4202                	lw	tp,0(sp)
    80000934:	080c                	addi	a1,sp,16
    80000936:	0200                	addi	s0,sp,256
    80000938:	c842                	sw	a6,16(sp)
    8000093a:	020c                	addi	a1,sp,256
    8000093c:	4220                	lw	s0,64(a2)
    8000093e:	000e                	c.slli	zero,0x3
    80000940:	0024                	addi	s1,sp,8
    80000942:	0000                	unimp
    80000944:	00dc                	addi	a5,sp,68
    80000946:	0000                	unimp
    80000948:	fabc                	sd	a5,112(a3)
    8000094a:	ffff                	.insn	2, 0xffff
    8000094c:	0024                	addi	s1,sp,8
    8000094e:	0000                	unimp
    80000950:	4200                	lw	s0,0(a2)
    80000952:	200e                	fld	ft0,192(sp)
    80000954:	8144                	.insn	2, 0x8144
    80000956:	8802                	jr	a6
    80000958:	4204                	lw	s1,0(a2)
    8000095a:	080c                	addi	a1,sp,16
    8000095c:	5600                	lw	s0,40(a2)
    8000095e:	42c1                	li	t0,16
    80000960:	0cc8                	addi	a0,sp,596
    80000962:	2002                	fld	ft0,0(sp)
    80000964:	0e42                	slli	t3,t3,0x10
    80000966:	0000                	unimp
    80000968:	0024                	addi	s1,sp,8
    8000096a:	0000                	unimp
    8000096c:	0104                	addi	s1,sp,128
    8000096e:	0000                	unimp
    80000970:	fab8                	sd	a4,112(a3)
    80000972:	ffff                	.insn	2, 0xffff
    80000974:	0050                	addi	a2,sp,4
    80000976:	0000                	unimp
    80000978:	4200                	lw	s0,0(a2)
    8000097a:	200e                	fld	ft0,192(sp)
    8000097c:	8144                	.insn	2, 0x8144
    8000097e:	8802                	jr	a6
    80000980:	4204                	lw	s1,0(a2)
    80000982:	080c                	addi	a1,sp,16
    80000984:	0200                	addi	s0,sp,256
    80000986:	c142                	sw	a6,128(sp)
    80000988:	c842                	sw	a6,16(sp)
    8000098a:	020c                	addi	a1,sp,256
    8000098c:	4220                	lw	s0,64(a2)
    8000098e:	000e                	c.slli	zero,0x3
    80000990:	0024                	addi	s1,sp,8
    80000992:	0000                	unimp
    80000994:	012c                	addi	a1,sp,136
    80000996:	0000                	unimp
    80000998:	fae0                	sd	s0,240(a3)
    8000099a:	ffff                	.insn	2, 0xffff
    8000099c:	0022                	c.slli	zero,0x8
    8000099e:	0000                	unimp
    800009a0:	4200                	lw	s0,0(a2)
    800009a2:	200e                	fld	ft0,192(sp)
    800009a4:	8144                	.insn	2, 0x8144
    800009a6:	8802                	jr	a6
    800009a8:	4204                	lw	s1,0(a2)
    800009aa:	080c                	addi	a1,sp,16
    800009ac:	5400                	lw	s0,40(s0)
    800009ae:	42c1                	li	t0,16
    800009b0:	0cc8                	addi	a0,sp,596
    800009b2:	2002                	fld	ft0,0(sp)
    800009b4:	0e42                	slli	t3,t3,0x10
    800009b6:	0000                	unimp
    800009b8:	0024                	addi	s1,sp,8
    800009ba:	0000                	unimp
    800009bc:	0154                	addi	a3,sp,132
    800009be:	0000                	unimp
    800009c0:	fada                	sd	s6,368(sp)
    800009c2:	ffff                	.insn	2, 0xffff
    800009c4:	004c                	addi	a1,sp,4
    800009c6:	0000                	unimp
    800009c8:	4200                	lw	s0,0(a2)
    800009ca:	200e                	fld	ft0,192(sp)
    800009cc:	8144                	.insn	2, 0x8144
    800009ce:	8802                	jr	a6
    800009d0:	4204                	lw	s1,0(a2)
    800009d2:	080c                	addi	a1,sp,16
    800009d4:	0200                	addi	s0,sp,256
    800009d6:	c13e                	sw	a5,128(sp)
    800009d8:	c842                	sw	a6,16(sp)
    800009da:	020c                	addi	a1,sp,256
    800009dc:	4220                	lw	s0,64(a2)
    800009de:	000e                	c.slli	zero,0x3
    800009e0:	0024                	addi	s1,sp,8
    800009e2:	0000                	unimp
    800009e4:	017c                	addi	a5,sp,140
    800009e6:	0000                	unimp
    800009e8:	fafe                	sd	t6,368(sp)
    800009ea:	ffff                	.insn	2, 0xffff
    800009ec:	007a                	c.slli	zero,0x1e
    800009ee:	0000                	unimp
    800009f0:	4200                	lw	s0,0(a2)
    800009f2:	300e                	fld	ft0,224(sp)
    800009f4:	8144                	.insn	2, 0x8144
    800009f6:	8802                	jr	a6
    800009f8:	4204                	lw	s1,0(a2)
    800009fa:	080c                	addi	a1,sp,16
    800009fc:	0200                	addi	s0,sp,256
    800009fe:	c16c                	sw	a1,68(a0)
    80000a00:	c842                	sw	a6,16(sp)
    80000a02:	020c                	addi	a1,sp,256
    80000a04:	4230                	lw	a2,64(a2)
    80000a06:	000e                	c.slli	zero,0x3
    80000a08:	001c                	.insn	2, 0x001c
    80000a0a:	0000                	unimp
    80000a0c:	01a4                	addi	s1,sp,200
    80000a0e:	0000                	unimp
    80000a10:	fb50                	sd	a2,176(a4)
    80000a12:	ffff                	.insn	2, 0xffff
    80000a14:	0034                	addi	a3,sp,8
    80000a16:	0000                	unimp
    80000a18:	4200                	lw	s0,0(a2)
    80000a1a:	100e                	c.slli	zero,0x23
    80000a1c:	8144                	.insn	2, 0x8144
    80000a1e:	8802                	jr	a6
    80000a20:	4204                	lw	s1,0(a2)
    80000a22:	080c                	addi	a1,sp,16
    80000a24:	0000                	unimp
    80000a26:	0000                	unimp
    80000a28:	0020                	addi	s0,sp,8
    80000a2a:	0000                	unimp
    80000a2c:	01c4                	addi	s1,sp,196
    80000a2e:	0000                	unimp
    80000a30:	fb64                	sd	s1,240(a4)
    80000a32:	ffff                	.insn	2, 0xffff
    80000a34:	001a                	c.slli	zero,0x6
    80000a36:	0000                	unimp
    80000a38:	4200                	lw	s0,0(a2)
    80000a3a:	200e                	fld	ft0,192(sp)
    80000a3c:	8842                	mv	a6,a6
    80000a3e:	4202                	lw	tp,0(sp)
    80000a40:	080c                	addi	a1,sp,16
    80000a42:	5000                	lw	s0,32(s0)
    80000a44:	0cc8                	addi	a0,sp,596
    80000a46:	2002                	fld	ft0,0(sp)
    80000a48:	0e42                	slli	t3,t3,0x10
    80000a4a:	0000                	unimp
    80000a4c:	0020                	addi	s0,sp,8
    80000a4e:	0000                	unimp
    80000a50:	01e8                	addi	a0,sp,204
    80000a52:	0000                	unimp
    80000a54:	fb5a                	sd	s6,432(sp)
    80000a56:	ffff                	.insn	2, 0xffff
    80000a58:	001a                	c.slli	zero,0x6
    80000a5a:	0000                	unimp
    80000a5c:	4200                	lw	s0,0(a2)
    80000a5e:	200e                	fld	ft0,192(sp)
    80000a60:	8842                	mv	a6,a6
    80000a62:	4202                	lw	tp,0(sp)
    80000a64:	080c                	addi	a1,sp,16
    80000a66:	5000                	lw	s0,32(s0)
    80000a68:	0cc8                	addi	a0,sp,596
    80000a6a:	2002                	fld	ft0,0(sp)
    80000a6c:	0e42                	slli	t3,t3,0x10
    80000a6e:	0000                	unimp
    80000a70:	0020                	addi	s0,sp,8
    80000a72:	0000                	unimp
    80000a74:	020c                	addi	a1,sp,256
    80000a76:	0000                	unimp
    80000a78:	fb50                	sd	a2,176(a4)
    80000a7a:	ffff                	.insn	2, 0xffff
    80000a7c:	001a                	c.slli	zero,0x6
    80000a7e:	0000                	unimp
    80000a80:	4200                	lw	s0,0(a2)
    80000a82:	200e                	fld	ft0,192(sp)
    80000a84:	8842                	mv	a6,a6
    80000a86:	4202                	lw	tp,0(sp)
    80000a88:	080c                	addi	a1,sp,16
    80000a8a:	5000                	lw	s0,32(s0)
    80000a8c:	0cc8                	addi	a0,sp,596
    80000a8e:	2002                	fld	ft0,0(sp)
    80000a90:	0e42                	slli	t3,t3,0x10
    80000a92:	0000                	unimp
    80000a94:	0020                	addi	s0,sp,8
    80000a96:	0000                	unimp
    80000a98:	0230                	addi	a2,sp,264
    80000a9a:	0000                	unimp
    80000a9c:	fb46                	sd	a7,432(sp)
    80000a9e:	ffff                	.insn	2, 0xffff
    80000aa0:	001a                	c.slli	zero,0x6
    80000aa2:	0000                	unimp
    80000aa4:	4200                	lw	s0,0(a2)
    80000aa6:	200e                	fld	ft0,192(sp)
    80000aa8:	8842                	mv	a6,a6
    80000aaa:	4202                	lw	tp,0(sp)
    80000aac:	080c                	addi	a1,sp,16
    80000aae:	5000                	lw	s0,32(s0)
    80000ab0:	0cc8                	addi	a0,sp,596
    80000ab2:	2002                	fld	ft0,0(sp)
    80000ab4:	0e42                	slli	t3,t3,0x10
    80000ab6:	0000                	unimp
    80000ab8:	0020                	addi	s0,sp,8
    80000aba:	0000                	unimp
    80000abc:	0254                	addi	a3,sp,260
    80000abe:	0000                	unimp
    80000ac0:	fb3c                	sd	a5,112(a4)
    80000ac2:	ffff                	.insn	2, 0xffff
    80000ac4:	001a                	c.slli	zero,0x6
    80000ac6:	0000                	unimp
    80000ac8:	4200                	lw	s0,0(a2)
    80000aca:	200e                	fld	ft0,192(sp)
    80000acc:	8842                	mv	a6,a6
    80000ace:	4202                	lw	tp,0(sp)
    80000ad0:	080c                	addi	a1,sp,16
    80000ad2:	5000                	lw	s0,32(s0)
    80000ad4:	0cc8                	addi	a0,sp,596
    80000ad6:	2002                	fld	ft0,0(sp)
    80000ad8:	0e42                	slli	t3,t3,0x10
    80000ada:	0000                	unimp
    80000adc:	0020                	addi	s0,sp,8
    80000ade:	0000                	unimp
    80000ae0:	0278                	addi	a4,sp,268
    80000ae2:	0000                	unimp
    80000ae4:	fb32                	sd	a2,432(sp)
    80000ae6:	ffff                	.insn	2, 0xffff
    80000ae8:	001a                	c.slli	zero,0x6
    80000aea:	0000                	unimp
    80000aec:	4200                	lw	s0,0(a2)
    80000aee:	200e                	fld	ft0,192(sp)
    80000af0:	8842                	mv	a6,a6
    80000af2:	4202                	lw	tp,0(sp)
    80000af4:	080c                	addi	a1,sp,16
    80000af6:	5000                	lw	s0,32(s0)
    80000af8:	0cc8                	addi	a0,sp,596
    80000afa:	2002                	fld	ft0,0(sp)
    80000afc:	0e42                	slli	t3,t3,0x10
    80000afe:	0000                	unimp
    80000b00:	0020                	addi	s0,sp,8
    80000b02:	0000                	unimp
    80000b04:	029c                	addi	a5,sp,320
    80000b06:	0000                	unimp
    80000b08:	fb28                	sd	a0,112(a4)
    80000b0a:	ffff                	.insn	2, 0xffff
    80000b0c:	001a                	c.slli	zero,0x6
    80000b0e:	0000                	unimp
    80000b10:	4200                	lw	s0,0(a2)
    80000b12:	200e                	fld	ft0,192(sp)
    80000b14:	8842                	mv	a6,a6
    80000b16:	4202                	lw	tp,0(sp)
    80000b18:	080c                	addi	a1,sp,16
    80000b1a:	5000                	lw	s0,32(s0)
    80000b1c:	0cc8                	addi	a0,sp,596
    80000b1e:	2002                	fld	ft0,0(sp)
    80000b20:	0e42                	slli	t3,t3,0x10
    80000b22:	0000                	unimp
    80000b24:	0020                	addi	s0,sp,8
    80000b26:	0000                	unimp
    80000b28:	02c0                	addi	s0,sp,324
    80000b2a:	0000                	unimp
    80000b2c:	fb1e                	sd	t2,432(sp)
    80000b2e:	ffff                	.insn	2, 0xffff
    80000b30:	001a                	c.slli	zero,0x6
    80000b32:	0000                	unimp
    80000b34:	4200                	lw	s0,0(a2)
    80000b36:	200e                	fld	ft0,192(sp)
    80000b38:	8842                	mv	a6,a6
    80000b3a:	4202                	lw	tp,0(sp)
    80000b3c:	080c                	addi	a1,sp,16
    80000b3e:	5000                	lw	s0,32(s0)
    80000b40:	0cc8                	addi	a0,sp,596
    80000b42:	2002                	fld	ft0,0(sp)
    80000b44:	0e42                	slli	t3,t3,0x10
    80000b46:	0000                	unimp
    80000b48:	0020                	addi	s0,sp,8
    80000b4a:	0000                	unimp
    80000b4c:	02e4                	addi	s1,sp,332
    80000b4e:	0000                	unimp
    80000b50:	fb14                	sd	a3,48(a4)
    80000b52:	ffff                	.insn	2, 0xffff
    80000b54:	001a                	c.slli	zero,0x6
    80000b56:	0000                	unimp
    80000b58:	4200                	lw	s0,0(a2)
    80000b5a:	200e                	fld	ft0,192(sp)
    80000b5c:	8842                	mv	a6,a6
    80000b5e:	4202                	lw	tp,0(sp)
    80000b60:	080c                	addi	a1,sp,16
    80000b62:	5000                	lw	s0,32(s0)
    80000b64:	0cc8                	addi	a0,sp,596
    80000b66:	2002                	fld	ft0,0(sp)
    80000b68:	0e42                	slli	t3,t3,0x10
    80000b6a:	0000                	unimp
    80000b6c:	0020                	addi	s0,sp,8
    80000b6e:	0000                	unimp
    80000b70:	0308                	addi	a0,sp,384
    80000b72:	0000                	unimp
    80000b74:	fb0a                	sd	sp,432(sp)
    80000b76:	ffff                	.insn	2, 0xffff
    80000b78:	001a                	c.slli	zero,0x6
    80000b7a:	0000                	unimp
    80000b7c:	4200                	lw	s0,0(a2)
    80000b7e:	200e                	fld	ft0,192(sp)
    80000b80:	8842                	mv	a6,a6
    80000b82:	4202                	lw	tp,0(sp)
    80000b84:	080c                	addi	a1,sp,16
    80000b86:	5000                	lw	s0,32(s0)
    80000b88:	0cc8                	addi	a0,sp,596
    80000b8a:	2002                	fld	ft0,0(sp)
    80000b8c:	0e42                	slli	t3,t3,0x10
    80000b8e:	0000                	unimp
    80000b90:	0020                	addi	s0,sp,8
    80000b92:	0000                	unimp
    80000b94:	032c                	addi	a1,sp,392
    80000b96:	0000                	unimp
    80000b98:	fb00                	sd	s0,48(a4)
    80000b9a:	ffff                	.insn	2, 0xffff
    80000b9c:	0018                	.insn	2, 0x0018
    80000b9e:	0000                	unimp
    80000ba0:	4200                	lw	s0,0(a2)
    80000ba2:	200e                	fld	ft0,192(sp)
    80000ba4:	8842                	mv	a6,a6
    80000ba6:	4202                	lw	tp,0(sp)
    80000ba8:	080c                	addi	a1,sp,16
    80000baa:	4e00                	lw	s0,24(a2)
    80000bac:	0cc8                	addi	a0,sp,596
    80000bae:	2002                	fld	ft0,0(sp)
    80000bb0:	0e42                	slli	t3,t3,0x10
    80000bb2:	0000                	unimp
    80000bb4:	0028                	addi	a0,sp,8
    80000bb6:	0000                	unimp
    80000bb8:	0350                	addi	a2,sp,388
    80000bba:	0000                	unimp
    80000bbc:	faf4                	sd	a3,240(a3)
    80000bbe:	ffff                	.insn	2, 0xffff
    80000bc0:	00a0                	addi	s0,sp,72
    80000bc2:	0000                	unimp
    80000bc4:	4200                	lw	s0,0(a2)
    80000bc6:	200e                	fld	ft0,192(sp)
    80000bc8:	8144                	.insn	2, 0x8144
    80000bca:	8802                	jr	a6
    80000bcc:	4204                	lw	s1,0(a2)
    80000bce:	080c                	addi	a1,sp,16
    80000bd0:	0200                	addi	s0,sp,256
    80000bd2:	c192                	sw	tp,192(sp)
    80000bd4:	c842                	sw	a6,16(sp)
    80000bd6:	020c                	addi	a1,sp,256
    80000bd8:	4220                	lw	s0,64(a2)
    80000bda:	000e                	c.slli	zero,0x3
    80000bdc:	0000                	unimp
    80000bde:	0000                	unimp
    80000be0:	0020                	addi	s0,sp,8
    80000be2:	0000                	unimp
    80000be4:	037c                	addi	a5,sp,396
    80000be6:	0000                	unimp
    80000be8:	fb68                	sd	a0,240(a4)
    80000bea:	ffff                	.insn	2, 0xffff
    80000bec:	001a                	c.slli	zero,0x6
    80000bee:	0000                	unimp
    80000bf0:	4200                	lw	s0,0(a2)
    80000bf2:	200e                	fld	ft0,192(sp)
    80000bf4:	8842                	mv	a6,a6
    80000bf6:	4202                	lw	tp,0(sp)
    80000bf8:	080c                	addi	a1,sp,16
    80000bfa:	5000                	lw	s0,32(s0)
    80000bfc:	0cc8                	addi	a0,sp,596
    80000bfe:	2002                	fld	ft0,0(sp)
    80000c00:	0e42                	slli	t3,t3,0x10
    80000c02:	0000                	unimp
    80000c04:	0020                	addi	s0,sp,8
    80000c06:	0000                	unimp
    80000c08:	03a0                	addi	s0,sp,456
    80000c0a:	0000                	unimp
    80000c0c:	fb5e                	sd	s7,432(sp)
    80000c0e:	ffff                	.insn	2, 0xffff
    80000c10:	001a                	c.slli	zero,0x6
    80000c12:	0000                	unimp
    80000c14:	4200                	lw	s0,0(a2)
    80000c16:	200e                	fld	ft0,192(sp)
    80000c18:	8842                	mv	a6,a6
    80000c1a:	4202                	lw	tp,0(sp)
    80000c1c:	080c                	addi	a1,sp,16
    80000c1e:	5000                	lw	s0,32(s0)
    80000c20:	0cc8                	addi	a0,sp,596
    80000c22:	2002                	fld	ft0,0(sp)
    80000c24:	0e42                	slli	t3,t3,0x10
    80000c26:	0000                	unimp
    80000c28:	0024                	addi	s1,sp,8
    80000c2a:	0000                	unimp
    80000c2c:	03c4                	addi	s1,sp,452
    80000c2e:	0000                	unimp
    80000c30:	fb54                	sd	a3,176(a4)
    80000c32:	ffff                	.insn	2, 0xffff
    80000c34:	0044                	addi	s1,sp,4
    80000c36:	0000                	unimp
    80000c38:	4200                	lw	s0,0(a2)
    80000c3a:	200e                	fld	ft0,192(sp)
    80000c3c:	8144                	.insn	2, 0x8144
    80000c3e:	8802                	jr	a6
    80000c40:	4204                	lw	s1,0(a2)
    80000c42:	080c                	addi	a1,sp,16
    80000c44:	7600                	ld	s0,40(a2)
    80000c46:	42c1                	li	t0,16
    80000c48:	0cc8                	addi	a0,sp,596
    80000c4a:	2002                	fld	ft0,0(sp)
    80000c4c:	0e42                	slli	t3,t3,0x10
	...

Disassembly of section .data:

0000000080000c50 <.data>:
	...

Disassembly of section .riscv.attributes:

0000000000000000 <.riscv.attributes>:
   0:	4a41                	li	s4,16
   2:	0000                	unimp
   4:	7200                	ld	s0,32(a2)
   6:	7369                	lui	t1,0xffffa
   8:	01007663          	bgeu	zero,a6,14 <REGBYTES+0xc>
   c:	0040                	addi	s0,sp,4
   e:	0000                	unimp
  10:	1004                	addi	s1,sp,32
  12:	7205                	lui	tp,0xfffe1
  14:	3676                	fld	fa2,376(sp)
  16:	6934                	ld	a3,80(a0)
  18:	7032                	.insn	2, 0x7032
  1a:	5f31                	li	t5,-20
  1c:	326d                	addiw	tp,tp,-5 # fffffffffffe0ffb <end+0xffffffff7ffd7feb>
  1e:	3070                	fld	fa2,224(s0)
  20:	615f 7032 5f31      	.insn	6, 0x5f317032615f
  26:	3266                	fld	ft4,120(sp)
  28:	3270                	fld	fa2,224(a2)
  2a:	645f 7032 5f32      	.insn	6, 0x5f327032645f
  30:	30703263          	.insn	4, 0x30703263
  34:	7a5f 6369 7273      	.insn	6, 0x727363697a5f
  3a:	7032                	.insn	2, 0x7032
  3c:	5f30                	lw	a2,120(a4)
  3e:	6d7a                	ld	s10,408(sp)
  40:	756d                	lui	a0,0xffffb
  42:	316c                	fld	fa1,224(a0)
  44:	3070                	fld	fa2,224(s0)
  46:	0800                	addi	s0,sp,16
  48:	0a01                	addi	s4,s4,0
  4a:	Address 0x4a is out of bounds.


Disassembly of section .comment:

0000000000000000 <.comment>:
   0:	3a434347          	fmsub.d	ft6,ft6,ft4,ft7,rmm
   4:	2820                	fld	fs0,80(s0)
   6:	39386367          	.insn	4, 0x39386367
   a:	6431                	lui	s0,0xc
   c:	6438                	ld	a4,72(s0)
   e:	65333263          	.insn	4, 0x65333263
  12:	642d                	lui	s0,0xb
  14:	7269                	lui	tp,0xffffa
  16:	7974                	ld	a3,240(a0)
  18:	2029                	.insn	2, 0x2029
  1a:	3331                	addiw	t1,t1,-20 # ffffffffffff9fec <end+0xffffffff7fff0fdc>
  1c:	322e                	fld	ft4,232(sp)
  1e:	302e                	fld	ft0,232(sp)
	...

Disassembly of section .debug_line:

0000000000000000 <.debug_line>:
   0:	03a8                	addi	a0,sp,456
   2:	0000                	unimp
   4:	0005                	c.nop	1
   6:	0008                	.insn	2, 0x0008
   8:	002e                	c.slli	zero,0xb
   a:	0000                	unimp
   c:	0101                	addi	sp,sp,0
   e:	fb01                	bnez	a4,ffffffffffffff1e <end+0xffffffff7fff6f0e>
  10:	0d0e                	slli	s10,s10,0x3
  12:	0100                	addi	s0,sp,128
  14:	0101                	addi	sp,sp,0
  16:	0001                	nop
  18:	0000                	unimp
  1a:	0001                	nop
  1c:	0100                	addi	s0,sp,128
  1e:	0101                	addi	sp,sp,0
  20:	021f 0000 0000      	.insn	6, 0x021f
  26:	003a                	c.slli	zero,0xe
  28:	0000                	unimp
  2a:	0102                	c.slli64	sp
  2c:	021f 020f 003e      	.insn	6, 0x003e020f021f
  32:	0000                	unimp
  34:	3e01                	addiw	t3,t3,-32 # 14fe0 <STACK_SIZE+0x14060>
  36:	0000                	unimp
  38:	0100                	addi	s0,sp,128
  3a:	0900                	addi	s0,sp,144
  3c:	3002                	fld	ft0,32(sp)
  3e:	0000                	unimp
  40:	0080                	addi	s0,sp,64
  42:	0000                	unimp
  44:	1800                	addi	s0,sp,48
  46:	02090303          	lb	t1,32(s2)
  4a:	0100                	addi	s0,sp,128
  4c:	02090103          	lb	sp,32(s2)
  50:	0100                	addi	s0,sp,128
  52:	02090103          	lb	sp,32(s2)
  56:	0100                	addi	s0,sp,128
  58:	02090103          	lb	sp,32(s2)
  5c:	0100                	addi	s0,sp,128
  5e:	02090103          	lb	sp,32(s2)
  62:	0100                	addi	s0,sp,128
  64:	02090103          	lb	sp,32(s2)
  68:	0100                	addi	s0,sp,128
  6a:	02090103          	lb	sp,32(s2)
  6e:	0100                	addi	s0,sp,128
  70:	02090103          	lb	sp,32(s2)
  74:	0100                	addi	s0,sp,128
  76:	02090103          	lb	sp,32(s2)
  7a:	0100                	addi	s0,sp,128
  7c:	02090103          	lb	sp,32(s2)
  80:	0100                	addi	s0,sp,128
  82:	02090103          	lb	sp,32(s2)
  86:	0100                	addi	s0,sp,128
  88:	02090103          	lb	sp,32(s2)
  8c:	0100                	addi	s0,sp,128
  8e:	02090103          	lb	sp,32(s2)
  92:	0100                	addi	s0,sp,128
  94:	02090103          	lb	sp,32(s2)
  98:	0100                	addi	s0,sp,128
  9a:	02090103          	lb	sp,32(s2)
  9e:	0100                	addi	s0,sp,128
  a0:	02090103          	lb	sp,32(s2)
  a4:	0100                	addi	s0,sp,128
  a6:	02090103          	lb	sp,32(s2)
  aa:	0100                	addi	s0,sp,128
  ac:	02090103          	lb	sp,32(s2)
  b0:	0100                	addi	s0,sp,128
  b2:	02090103          	lb	sp,32(s2)
  b6:	0100                	addi	s0,sp,128
  b8:	02090103          	lb	sp,32(s2)
  bc:	0100                	addi	s0,sp,128
  be:	02090103          	lb	sp,32(s2)
  c2:	0100                	addi	s0,sp,128
  c4:	02090103          	lb	sp,32(s2)
  c8:	0100                	addi	s0,sp,128
  ca:	02090103          	lb	sp,32(s2)
  ce:	0100                	addi	s0,sp,128
  d0:	02090103          	lb	sp,32(s2)
  d4:	0100                	addi	s0,sp,128
  d6:	02090103          	lb	sp,32(s2)
  da:	0100                	addi	s0,sp,128
  dc:	02090103          	lb	sp,32(s2)
  e0:	0100                	addi	s0,sp,128
  e2:	02090103          	lb	sp,32(s2)
  e6:	0100                	addi	s0,sp,128
  e8:	02090103          	lb	sp,32(s2)
  ec:	0100                	addi	s0,sp,128
  ee:	02090103          	lb	sp,32(s2)
  f2:	0100                	addi	s0,sp,128
  f4:	02090103          	lb	sp,32(s2)
  f8:	0100                	addi	s0,sp,128
  fa:	02090103          	lb	sp,32(s2)
  fe:	0100                	addi	s0,sp,128
 100:	02090603          	lb	a2,32(s2)
 104:	0100                	addi	s0,sp,128
 106:	02090103          	lb	sp,32(s2)
 10a:	0100                	addi	s0,sp,128
 10c:	02090103          	lb	sp,32(s2)
 110:	0100                	addi	s0,sp,128
 112:	02090203          	lb	tp,32(s2)
 116:	0100                	addi	s0,sp,128
 118:	02090103          	lb	sp,32(s2)
 11c:	0100                	addi	s0,sp,128
 11e:	02090103          	lb	sp,32(s2)
 122:	0100                	addi	s0,sp,128
 124:	02090103          	lb	sp,32(s2)
 128:	0100                	addi	s0,sp,128
 12a:	02090103          	lb	sp,32(s2)
 12e:	0100                	addi	s0,sp,128
 130:	02090103          	lb	sp,32(s2)
 134:	0100                	addi	s0,sp,128
 136:	02090103          	lb	sp,32(s2)
 13a:	0100                	addi	s0,sp,128
 13c:	02090103          	lb	sp,32(s2)
 140:	0100                	addi	s0,sp,128
 142:	02090103          	lb	sp,32(s2)
 146:	0100                	addi	s0,sp,128
 148:	02090103          	lb	sp,32(s2)
 14c:	0100                	addi	s0,sp,128
 14e:	02090103          	lb	sp,32(s2)
 152:	0100                	addi	s0,sp,128
 154:	02090103          	lb	sp,32(s2)
 158:	0100                	addi	s0,sp,128
 15a:	02090103          	lb	sp,32(s2)
 15e:	0100                	addi	s0,sp,128
 160:	02090103          	lb	sp,32(s2)
 164:	0100                	addi	s0,sp,128
 166:	02090103          	lb	sp,32(s2)
 16a:	0100                	addi	s0,sp,128
 16c:	02090103          	lb	sp,32(s2)
 170:	0100                	addi	s0,sp,128
 172:	02090103          	lb	sp,32(s2)
 176:	0100                	addi	s0,sp,128
 178:	02090103          	lb	sp,32(s2)
 17c:	0100                	addi	s0,sp,128
 17e:	02090103          	lb	sp,32(s2)
 182:	0100                	addi	s0,sp,128
 184:	02090103          	lb	sp,32(s2)
 188:	0100                	addi	s0,sp,128
 18a:	02090103          	lb	sp,32(s2)
 18e:	0100                	addi	s0,sp,128
 190:	02090103          	lb	sp,32(s2)
 194:	0100                	addi	s0,sp,128
 196:	02090103          	lb	sp,32(s2)
 19a:	0100                	addi	s0,sp,128
 19c:	02090103          	lb	sp,32(s2)
 1a0:	0100                	addi	s0,sp,128
 1a2:	02090103          	lb	sp,32(s2)
 1a6:	0100                	addi	s0,sp,128
 1a8:	02090103          	lb	sp,32(s2)
 1ac:	0100                	addi	s0,sp,128
 1ae:	02090103          	lb	sp,32(s2)
 1b2:	0100                	addi	s0,sp,128
 1b4:	02090203          	lb	tp,32(s2)
 1b8:	0100                	addi	s0,sp,128
 1ba:	02090303          	lb	t1,32(s2)
 1be:	0100                	addi	s0,sp,128
 1c0:	12090a03          	lb	s4,288(s2)
 1c4:	0100                	addi	s0,sp,128
 1c6:	02090303          	lb	t1,32(s2)
 1ca:	0100                	addi	s0,sp,128
 1cc:	02090103          	lb	sp,32(s2)
 1d0:	0100                	addi	s0,sp,128
 1d2:	02090103          	lb	sp,32(s2)
 1d6:	0100                	addi	s0,sp,128
 1d8:	02090103          	lb	sp,32(s2)
 1dc:	0100                	addi	s0,sp,128
 1de:	02090103          	lb	sp,32(s2)
 1e2:	0100                	addi	s0,sp,128
 1e4:	02090103          	lb	sp,32(s2)
 1e8:	0100                	addi	s0,sp,128
 1ea:	02090103          	lb	sp,32(s2)
 1ee:	0100                	addi	s0,sp,128
 1f0:	02090103          	lb	sp,32(s2)
 1f4:	0100                	addi	s0,sp,128
 1f6:	02090103          	lb	sp,32(s2)
 1fa:	0100                	addi	s0,sp,128
 1fc:	02090103          	lb	sp,32(s2)
 200:	0100                	addi	s0,sp,128
 202:	02090103          	lb	sp,32(s2)
 206:	0100                	addi	s0,sp,128
 208:	02090103          	lb	sp,32(s2)
 20c:	0100                	addi	s0,sp,128
 20e:	02090103          	lb	sp,32(s2)
 212:	0100                	addi	s0,sp,128
 214:	02090103          	lb	sp,32(s2)
 218:	0100                	addi	s0,sp,128
 21a:	02090103          	lb	sp,32(s2)
 21e:	0100                	addi	s0,sp,128
 220:	02090103          	lb	sp,32(s2)
 224:	0100                	addi	s0,sp,128
 226:	02090103          	lb	sp,32(s2)
 22a:	0100                	addi	s0,sp,128
 22c:	02090103          	lb	sp,32(s2)
 230:	0100                	addi	s0,sp,128
 232:	02090103          	lb	sp,32(s2)
 236:	0100                	addi	s0,sp,128
 238:	02090103          	lb	sp,32(s2)
 23c:	0100                	addi	s0,sp,128
 23e:	02090103          	lb	sp,32(s2)
 242:	0100                	addi	s0,sp,128
 244:	02090103          	lb	sp,32(s2)
 248:	0100                	addi	s0,sp,128
 24a:	02090103          	lb	sp,32(s2)
 24e:	0100                	addi	s0,sp,128
 250:	02090103          	lb	sp,32(s2)
 254:	0100                	addi	s0,sp,128
 256:	02090103          	lb	sp,32(s2)
 25a:	0100                	addi	s0,sp,128
 25c:	02090103          	lb	sp,32(s2)
 260:	0100                	addi	s0,sp,128
 262:	02090103          	lb	sp,32(s2)
 266:	0100                	addi	s0,sp,128
 268:	02090103          	lb	sp,32(s2)
 26c:	0100                	addi	s0,sp,128
 26e:	02090103          	lb	sp,32(s2)
 272:	0100                	addi	s0,sp,128
 274:	02090103          	lb	sp,32(s2)
 278:	0100                	addi	s0,sp,128
 27a:	02090103          	lb	sp,32(s2)
 27e:	0100                	addi	s0,sp,128
 280:	02090203          	lb	tp,32(s2)
 284:	0100                	addi	s0,sp,128
 286:	04090303          	lb	t1,64(s2)
 28a:	0100                	addi	s0,sp,128
 28c:	02090103          	lb	sp,32(s2)
 290:	0100                	addi	s0,sp,128
 292:	02090103          	lb	sp,32(s2)
 296:	0100                	addi	s0,sp,128
 298:	02090203          	lb	tp,32(s2)
 29c:	0100                	addi	s0,sp,128
 29e:	02090103          	lb	sp,32(s2)
 2a2:	0100                	addi	s0,sp,128
 2a4:	02090103          	lb	sp,32(s2)
 2a8:	0100                	addi	s0,sp,128
 2aa:	02090103          	lb	sp,32(s2)
 2ae:	0100                	addi	s0,sp,128
 2b0:	02090103          	lb	sp,32(s2)
 2b4:	0100                	addi	s0,sp,128
 2b6:	02090103          	lb	sp,32(s2)
 2ba:	0100                	addi	s0,sp,128
 2bc:	02090103          	lb	sp,32(s2)
 2c0:	0100                	addi	s0,sp,128
 2c2:	02090103          	lb	sp,32(s2)
 2c6:	0100                	addi	s0,sp,128
 2c8:	02090103          	lb	sp,32(s2)
 2cc:	0100                	addi	s0,sp,128
 2ce:	02090103          	lb	sp,32(s2)
 2d2:	0100                	addi	s0,sp,128
 2d4:	02090103          	lb	sp,32(s2)
 2d8:	0100                	addi	s0,sp,128
 2da:	02090103          	lb	sp,32(s2)
 2de:	0100                	addi	s0,sp,128
 2e0:	02090103          	lb	sp,32(s2)
 2e4:	0100                	addi	s0,sp,128
 2e6:	02090103          	lb	sp,32(s2)
 2ea:	0100                	addi	s0,sp,128
 2ec:	02090103          	lb	sp,32(s2)
 2f0:	0100                	addi	s0,sp,128
 2f2:	02090103          	lb	sp,32(s2)
 2f6:	0100                	addi	s0,sp,128
 2f8:	02090103          	lb	sp,32(s2)
 2fc:	0100                	addi	s0,sp,128
 2fe:	02090103          	lb	sp,32(s2)
 302:	0100                	addi	s0,sp,128
 304:	02090103          	lb	sp,32(s2)
 308:	0100                	addi	s0,sp,128
 30a:	02090103          	lb	sp,32(s2)
 30e:	0100                	addi	s0,sp,128
 310:	02090103          	lb	sp,32(s2)
 314:	0100                	addi	s0,sp,128
 316:	02090103          	lb	sp,32(s2)
 31a:	0100                	addi	s0,sp,128
 31c:	02090103          	lb	sp,32(s2)
 320:	0100                	addi	s0,sp,128
 322:	02090103          	lb	sp,32(s2)
 326:	0100                	addi	s0,sp,128
 328:	02090103          	lb	sp,32(s2)
 32c:	0100                	addi	s0,sp,128
 32e:	02090103          	lb	sp,32(s2)
 332:	0100                	addi	s0,sp,128
 334:	02090103          	lb	sp,32(s2)
 338:	0100                	addi	s0,sp,128
 33a:	02090203          	lb	tp,32(s2)
 33e:	0100                	addi	s0,sp,128
 340:	02090203          	lb	tp,32(s2)
 344:	0100                	addi	s0,sp,128
 346:	0e090a03          	lb	s4,224(s2)
 34a:	0100                	addi	s0,sp,128
 34c:	04090103          	lb	sp,64(s2)
 350:	0100                	addi	s0,sp,128
 352:	02090103          	lb	sp,32(s2)
 356:	0100                	addi	s0,sp,128
 358:	02090103          	lb	sp,32(s2)
 35c:	0100                	addi	s0,sp,128
 35e:	02090403          	lb	s0,32(s2)
 362:	0100                	addi	s0,sp,128
 364:	02090103          	lb	sp,32(s2)
 368:	0100                	addi	s0,sp,128
 36a:	02090103          	lb	sp,32(s2)
 36e:	0100                	addi	s0,sp,128
 370:	02090103          	lb	sp,32(s2)
 374:	0100                	addi	s0,sp,128
 376:	02090103          	lb	sp,32(s2)
 37a:	0100                	addi	s0,sp,128
 37c:	02090303          	lb	t1,32(s2)
 380:	0100                	addi	s0,sp,128
 382:	02090103          	lb	sp,32(s2)
 386:	0100                	addi	s0,sp,128
 388:	04090203          	lb	tp,64(s2)
 38c:	0100                	addi	s0,sp,128
 38e:	02090103          	lb	sp,32(s2)
 392:	0100                	addi	s0,sp,128
 394:	02090103          	lb	sp,32(s2)
 398:	0100                	addi	s0,sp,128
 39a:	02090103          	lb	sp,32(s2)
 39e:	0100                	addi	s0,sp,128
 3a0:	04090203          	lb	tp,64(s2)
 3a4:	0100                	addi	s0,sp,128
 3a6:	0409                	addi	s0,s0,2 # b002 <STACK_SIZE+0xa082>
 3a8:	0000                	unimp
 3aa:	0101                	addi	sp,sp,0
 3ac:	0072                	c.slli	zero,0x1c
 3ae:	0000                	unimp
 3b0:	0005                	c.nop	1
 3b2:	0008                	.insn	2, 0x0008
 3b4:	002e                	c.slli	zero,0xb
 3b6:	0000                	unimp
 3b8:	0101                	addi	sp,sp,0
 3ba:	fb01                	bnez	a4,2ca <REGBYTES+0x2c2>
 3bc:	0d0e                	slli	s10,s10,0x3
 3be:	0100                	addi	s0,sp,128
 3c0:	0101                	addi	sp,sp,0
 3c2:	0001                	nop
 3c4:	0000                	unimp
 3c6:	0001                	nop
 3c8:	0100                	addi	s0,sp,128
 3ca:	0101                	addi	sp,sp,0
 3cc:	021f 0000 0000      	.insn	6, 0x021f
 3d2:	003a                	c.slli	zero,0xe
 3d4:	0000                	unimp
 3d6:	0102                	c.slli64	sp
 3d8:	021f 020f 004a      	.insn	6, 0x004a020f021f
 3de:	0000                	unimp
 3e0:	4a01                	li	s4,0
 3e2:	0000                	unimp
 3e4:	0100                	addi	s0,sp,128
 3e6:	0900                	addi	s0,sp,144
 3e8:	0002                	c.slli64	zero
 3ea:	0000                	unimp
 3ec:	0080                	addi	s0,sp,64
 3ee:	0000                	unimp
 3f0:	1900                	addi	s0,sp,176
 3f2:	04090103          	lb	sp,64(s2)
 3f6:	0100                	addi	s0,sp,128
 3f8:	04090103          	lb	sp,64(s2)
 3fc:	0100                	addi	s0,sp,128
 3fe:	04090203          	lb	tp,64(s2)
 402:	0100                	addi	s0,sp,128
 404:	04090103          	lb	sp,64(s2)
 408:	0100                	addi	s0,sp,128
 40a:	02090403          	lb	s0,32(s2)
 40e:	0100                	addi	s0,sp,128
 410:	08090303          	lb	t1,128(s2)
 414:	0100                	addi	s0,sp,128
 416:	08090103          	lb	sp,128(s2)
 41a:	0100                	addi	s0,sp,128
 41c:	0409                	addi	s0,s0,2
 41e:	0000                	unimp
 420:	0101                	addi	sp,sp,0
 422:	01dd                	addi	gp,gp,23
 424:	0000                	unimp
 426:	0005                	c.nop	1
 428:	0008                	.insn	2, 0x0008
 42a:	0045                	c.nop	17
 42c:	0000                	unimp
 42e:	0101                	addi	sp,sp,0
 430:	fb01                	bnez	a4,340 <REGBYTES+0x338>
 432:	0d0e                	slli	s10,s10,0x3
 434:	0100                	addi	s0,sp,128
 436:	0101                	addi	sp,sp,0
 438:	0001                	nop
 43a:	0000                	unimp
 43c:	0001                	nop
 43e:	0100                	addi	s0,sp,128
 440:	0101                	addi	sp,sp,0
 442:	041f 0000 0000      	.insn	6, 0x041f
 448:	003a                	c.slli	zero,0xe
 44a:	0000                	unimp
 44c:	005f 0000 00a1      	.insn	6, 0x00a10000005f
 452:	0000                	unimp
 454:	0102                	c.slli64	sp
 456:	021f 050f 0058      	.insn	6, 0x0058050f021f
 45c:	0000                	unimp
 45e:	5801                	li	a6,-32
 460:	0000                	unimp
 462:	0100                	addi	s0,sp,128
 464:	00a5                	addi	ra,ra,9
 466:	0000                	unimp
 468:	ad02                	fsd	ft0,152(sp)
 46a:	0000                	unimp
 46c:	0200                	addi	s0,sp,256
 46e:	00bc                	addi	a5,sp,72
 470:	0000                	unimp
 472:	00280503          	lb	a0,2(a6) # ffffffffffff9002 <end+0xffffffff7ffefff2>
 476:	0209                	addi	tp,tp,2 # ffffffffffffa002 <end+0xffffffff7fff0ff2>
 478:	017a                	slli	sp,sp,0x1e
 47a:	8000                	.insn	2, 0x8000
 47c:	0000                	unimp
 47e:	0000                	unimp
 480:	051a                	slli	a0,a0,0x6
 482:	0316                	slli	t1,t1,0x5
 484:	0901                	addi	s2,s2,0
 486:	000c                	.insn	2, 0x000c
 488:	0501                	addi	a0,a0,0 # ffffffffffffb000 <end+0xffffffff7fff1ff0>
 48a:	0308                	addi	a0,sp,384
 48c:	0900                	addi	s0,sp,144
 48e:	000a                	c.slli	zero,0x2
 490:	0501                	addi	a0,a0,0
 492:	0309                	addi	t1,t1,2
 494:	0901                	addi	s2,s2,0
 496:	0006                	c.slli	zero,0x1
 498:	0501                	addi	a0,a0,0
 49a:	0311                	addi	t1,t1,4
 49c:	0901                	addi	s2,s2,0
 49e:	000c                	.insn	2, 0x000c
 4a0:	0501                	addi	a0,a0,0
 4a2:	0309                	addi	t1,t1,2
 4a4:	0900                	addi	s0,sp,144
 4a6:	0010                	.insn	2, 0x0010
 4a8:	0501                	addi	a0,a0,0
 4aa:	0311                	addi	t1,t1,4
 4ac:	0900                	addi	s0,sp,144
 4ae:	000a                	c.slli	zero,0x2
 4b0:	0501                	addi	a0,a0,0
 4b2:	0309                	addi	t1,t1,2
 4b4:	0900                	addi	s0,sp,144
 4b6:	000a                	c.slli	zero,0x2
 4b8:	0301                	addi	t1,t1,0
 4ba:	0901                	addi	s2,s2,0
 4bc:	0006                	c.slli	zero,0x1
 4be:	0501                	addi	a0,a0,0
 4c0:	0315                	addi	t1,t1,5
 4c2:	0902                	c.slli64	s2
 4c4:	000c                	.insn	2, 0x000c
 4c6:	0501                	addi	a0,a0,0
 4c8:	0309                	addi	t1,t1,2
 4ca:	0900                	addi	s0,sp,144
 4cc:	0008                	.insn	2, 0x0008
 4ce:	0501                	addi	a0,a0,0
 4d0:	031c                	addi	a5,sp,384
 4d2:	0900                	addi	s0,sp,144
 4d4:	0004                	.insn	2, 0x0004
 4d6:	0501                	addi	a0,a0,0
 4d8:	09000313          	li	t1,144
 4dc:	0008                	.insn	2, 0x0008
 4de:	0301                	addi	t1,t1,0
 4e0:	0901                	addi	s2,s2,0
 4e2:	0002                	c.slli64	zero
 4e4:	0501                	addi	a0,a0,0
 4e6:	030c                	addi	a1,sp,384
 4e8:	0900                	addi	s0,sp,144
 4ea:	000a                	c.slli	zero,0x2
 4ec:	0501                	addi	a0,a0,0
 4ee:	030d                	addi	t1,t1,3
 4f0:	0902                	c.slli64	s2
 4f2:	0008                	.insn	2, 0x0008
 4f4:	0501                	addi	a0,a0,0
 4f6:	0311                	addi	t1,t1,4
 4f8:	0901                	addi	s2,s2,0
 4fa:	0008                	.insn	2, 0x0008
 4fc:	0501                	addi	a0,a0,0
 4fe:	030d                	addi	t1,t1,3
 500:	0901                	addi	s2,s2,0
 502:	000c                	.insn	2, 0x000c
 504:	0501                	addi	a0,a0,0
 506:	0301                	addi	t1,t1,0
 508:	0909                	addi	s2,s2,2
 50a:	0008                	.insn	2, 0x0008
 50c:	0501                	addi	a0,a0,0
 50e:	0309                	addi	t1,t1,2
 510:	097a                	slli	s2,s2,0x1e
 512:	0002                	c.slli64	zero
 514:	0301                	addi	t1,t1,0
 516:	0901                	addi	s2,s2,0
 518:	000c                	.insn	2, 0x000c
 51a:	0301                	addi	t1,t1,0
 51c:	0901                	addi	s2,s2,0
 51e:	0010                	.insn	2, 0x0010
 520:	0501                	addi	a0,a0,0
 522:	0901030f          	.insn	4, 0x0901030f
 526:	000c                	.insn	2, 0x000c
 528:	0501                	addi	a0,a0,0
 52a:	0301                	addi	t1,t1,0
 52c:	00040903          	lb	s2,0(s0)
 530:	0501                	addi	a0,a0,0
 532:	0328                	addi	a0,sp,392
 534:	0902                	c.slli64	s2
 536:	000a                	c.slli	zero,0x2
 538:	0501                	addi	a0,a0,0
 53a:	0308                	addi	a0,sp,384
 53c:	000c0903          	lb	s2,0(s8) # fffffffffffe0000 <end+0xffffffff7ffd6ff0>
 540:	0501                	addi	a0,a0,0
 542:	0315                	addi	t1,t1,5
 544:	0901                	addi	s2,s2,0
 546:	000a                	c.slli	zero,0x2
 548:	0501                	addi	a0,a0,0
 54a:	0309                	addi	t1,t1,2
 54c:	0900                	addi	s0,sp,144
 54e:	0008                	.insn	2, 0x0008
 550:	0501                	addi	a0,a0,0
 552:	031c                	addi	a5,sp,384
 554:	0900                	addi	s0,sp,144
 556:	0004                	.insn	2, 0x0004
 558:	0501                	addi	a0,a0,0
 55a:	09000313          	li	t1,144
 55e:	0008                	.insn	2, 0x0008
 560:	0501                	addi	a0,a0,0
 562:	0309                	addi	t1,t1,2
 564:	0902                	c.slli64	s2
 566:	0002                	c.slli64	zero
 568:	0501                	addi	a0,a0,0
 56a:	030d                	addi	t1,t1,3
 56c:	0901                	addi	s2,s2,0
 56e:	0008                	.insn	2, 0x0008
 570:	0501                	addi	a0,a0,0
 572:	0309                	addi	t1,t1,2
 574:	0901                	addi	s2,s2,0
 576:	000c                	.insn	2, 0x000c
 578:	0501                	addi	a0,a0,0
 57a:	0301                	addi	t1,t1,0
 57c:	0908                	addi	a0,sp,144
 57e:	0008                	.insn	2, 0x0008
 580:	0501                	addi	a0,a0,0
 582:	0309                	addi	t1,t1,2
 584:	097a                	slli	s2,s2,0x1e
 586:	0002                	c.slli64	zero
 588:	0301                	addi	t1,t1,0
 58a:	0901                	addi	s2,s2,0
 58c:	000c                	.insn	2, 0x000c
 58e:	0301                	addi	t1,t1,0
 590:	0901                	addi	s2,s2,0
 592:	0010                	.insn	2, 0x0010
 594:	0501                	addi	a0,a0,0
 596:	0901030f          	.insn	4, 0x0901030f
 59a:	000c                	.insn	2, 0x000c
 59c:	0501                	addi	a0,a0,0
 59e:	0301                	addi	t1,t1,0
 5a0:	00040903          	lb	s2,0(s0)
 5a4:	0501                	addi	a0,a0,0
 5a6:	0314                	addi	a3,sp,384
 5a8:	0902                	c.slli64	s2
 5aa:	0008                	.insn	2, 0x0008
 5ac:	0501                	addi	a0,a0,0
 5ae:	0305                	addi	t1,t1,1
 5b0:	0902                	c.slli64	s2
 5b2:	0008                	.insn	2, 0x0008
 5b4:	0301                	addi	t1,t1,0
 5b6:	0901                	addi	s2,s2,0
 5b8:	0008                	.insn	2, 0x0008
 5ba:	0501                	addi	a0,a0,0
 5bc:	0309                	addi	t1,t1,2
 5be:	0902                	c.slli64	s2
 5c0:	0008                	.insn	2, 0x0008
 5c2:	0501                	addi	a0,a0,0
 5c4:	0308                	addi	a0,sp,384
 5c6:	0900                	addi	s0,sp,144
 5c8:	0004                	.insn	2, 0x0004
 5ca:	0501                	addi	a0,a0,0
 5cc:	0309                	addi	t1,t1,2
 5ce:	0901                	addi	s2,s2,0
 5d0:	0004                	.insn	2, 0x0004
 5d2:	0501                	addi	a0,a0,0
 5d4:	0301                	addi	t1,t1,0
 5d6:	00080907          	.insn	4, 0x00080907
 5da:	0501                	addi	a0,a0,0
 5dc:	0309                	addi	t1,t1,2
 5de:	0002097b          	.insn	4, 0x0002097b
 5e2:	0301                	addi	t1,t1,0
 5e4:	0901                	addi	s2,s2,0
 5e6:	0008                	.insn	2, 0x0008
 5e8:	0301                	addi	t1,t1,0
 5ea:	0901                	addi	s2,s2,0
 5ec:	0004                	.insn	2, 0x0004
 5ee:	0301                	addi	t1,t1,0
 5f0:	0901                	addi	s2,s2,0
 5f2:	0002                	c.slli64	zero
 5f4:	0501                	addi	a0,a0,0
 5f6:	0301                	addi	t1,t1,0
 5f8:	0902                	c.slli64	s2
 5fa:	0004                	.insn	2, 0x0004
 5fc:	0901                	addi	s2,s2,0
 5fe:	000a                	c.slli	zero,0x2
 600:	0100                	addi	s0,sp,128
 602:	5d01                	li	s10,-32
 604:	0002                	c.slli64	zero
 606:	0500                	addi	s0,sp,640
 608:	0800                	addi	s0,sp,16
 60a:	4500                	lw	s0,8(a0)
 60c:	0000                	unimp
 60e:	0100                	addi	s0,sp,128
 610:	0101                	addi	sp,sp,0
 612:	000d0efb          	.insn	4, 0x000d0efb
 616:	0101                	addi	sp,sp,0
 618:	0101                	addi	sp,sp,0
 61a:	0000                	unimp
 61c:	0100                	addi	s0,sp,128
 61e:	0000                	unimp
 620:	0101                	addi	sp,sp,0
 622:	1f01                	addi	t5,t5,-32 # 19fe0 <STACK_SIZE+0x19060>
 624:	0004                	.insn	2, 0x0004
 626:	0000                	unimp
 628:	3a00                	fld	fs0,48(a2)
 62a:	0000                	unimp
 62c:	5f00                	lw	s0,56(a4)
 62e:	0000                	unimp
 630:	a100                	fsd	fs0,0(a0)
 632:	0000                	unimp
 634:	0200                	addi	s0,sp,256
 636:	1f01                	addi	t5,t5,-32
 638:	0f02                	c.slli64	t5
 63a:	c705                	beqz	a4,662 <REGBYTES+0x65a>
 63c:	0000                	unimp
 63e:	0100                	addi	s0,sp,128
 640:	000000c7          	fmsub.s	ft1,ft0,ft0,ft0,rne
 644:	a501                	j	c44 <REGBYTES+0xc3c>
 646:	0000                	unimp
 648:	0200                	addi	s0,sp,256
 64a:	00ad                	addi	ra,ra,11
 64c:	0000                	unimp
 64e:	bc02                	fsd	ft0,56(sp)
 650:	0000                	unimp
 652:	0300                	addi	s0,sp,384
 654:	1205                	addi	tp,tp,-31 # ffffffffffffffe1 <end+0xffffffff7fff6fd1>
 656:	0900                	addi	s0,sp,144
 658:	1802                	slli	a6,a6,0x20
 65a:	00800003          	lb	zero,8(zero) # 8 <REGBYTES>
 65e:	0000                	unimp
 660:	1800                	addi	s0,sp,48
 662:	0a05                	addi	s4,s4,1
 664:	06090103          	lb	sp,96(s2)
 668:	0100                	addi	s0,sp,128
 66a:	0e05                	addi	t3,t3,1
 66c:	0e090103          	lb	sp,224(s2)
 670:	0100                	addi	s0,sp,128
 672:	08090103          	lb	sp,128(s2)
 676:	0100                	addi	s0,sp,128
 678:	2805                	addiw	a6,a6,1
 67a:	0a090103          	lb	sp,160(s2)
 67e:	0100                	addi	s0,sp,128
 680:	0e05                	addi	t3,t3,1
 682:	0a090003          	lb	zero,160(s2)
 686:	0100                	addi	s0,sp,128
 688:	0905                	addi	s2,s2,1
 68a:	0c090103          	lb	sp,192(s2)
 68e:	0100                	addi	s0,sp,128
 690:	1405                	addi	s0,s0,-31
 692:	0c090003          	lb	zero,192(s2)
 696:	0100                	addi	s0,sp,128
 698:	0905                	addi	s2,s2,1
 69a:	08090103          	lb	sp,128(s2)
 69e:	0100                	addi	s0,sp,128
 6a0:	1405                	addi	s0,s0,-31
 6a2:	0a090003          	lb	zero,160(s2)
 6a6:	0100                	addi	s0,sp,128
 6a8:	1f05                	addi	t5,t5,-31
 6aa:	0c090103          	lb	sp,192(s2)
 6ae:	0100                	addi	s0,sp,128
 6b0:	0905                	addi	s2,s2,1
 6b2:	0c090003          	lb	zero,192(s2)
 6b6:	0100                	addi	s0,sp,128
 6b8:	1405                	addi	s0,s0,-31
 6ba:	0c090003          	lb	zero,192(s2)
 6be:	0100                	addi	s0,sp,128
 6c0:	0905                	addi	s2,s2,1
 6c2:	08090103          	lb	sp,128(s2)
 6c6:	0100                	addi	s0,sp,128
 6c8:	1405                	addi	s0,s0,-31
 6ca:	0c090003          	lb	zero,192(s2)
 6ce:	0100                	addi	s0,sp,128
 6d0:	0105                	addi	sp,sp,1
 6d2:	06090103          	lb	sp,96(s2)
 6d6:	0100                	addi	s0,sp,128
 6d8:	2505                	addiw	a0,a0,1
 6da:	08090203          	lb	tp,128(s2)
 6de:	0100                	addi	s0,sp,128
 6e0:	0b05                	addi	s6,s6,1
 6e2:	0c090103          	lb	sp,192(s2)
 6e6:	0100                	addi	s0,sp,128
 6e8:	1105                	addi	sp,sp,-31
 6ea:	0200                	addi	s0,sp,256
 6ec:	0104                	addi	s1,sp,128
 6ee:	02090003          	lb	zero,32(s2)
 6f2:	0100                	addi	s0,sp,128
 6f4:	1c05                	addi	s8,s8,-31
 6f6:	0200                	addi	s0,sp,256
 6f8:	0104                	addi	s1,sp,128
 6fa:	14090003          	lb	zero,320(s2)
 6fe:	0100                	addi	s0,sp,128
 700:	2b05                	addiw	s6,s6,1
 702:	0200                	addi	s0,sp,256
 704:	0104                	addi	s1,sp,128
 706:	08090003          	lb	zero,128(s2)
 70a:	0100                	addi	s0,sp,128
 70c:	1005                	c.nop	-31
 70e:	02090203          	lb	tp,32(s2)
 712:	0100                	addi	s0,sp,128
 714:	1b05                	addi	s6,s6,-31
 716:	0a090003          	lb	zero,160(s2)
 71a:	0100                	addi	s0,sp,128
 71c:	0105                	addi	sp,sp,1
 71e:	0e090103          	lb	sp,224(s2)
 722:	0100                	addi	s0,sp,128
 724:	1805                	addi	a6,a6,-31
 726:	08090203          	lb	tp,128(s2)
 72a:	0100                	addi	s0,sp,128
 72c:	1a05                	addi	s4,s4,-31
 72e:	0e090003          	lb	zero,224(s2)
 732:	0100                	addi	s0,sp,128
 734:	2f05                	addiw	t5,t5,1
 736:	0c090003          	lb	zero,192(s2)
 73a:	0100                	addi	s0,sp,128
 73c:	1d05                	addi	s10,s10,-31
 73e:	0a090203          	lb	tp,160(s2)
 742:	0100                	addi	s0,sp,128
 744:	0b05                	addi	s6,s6,1
 746:	0c090103          	lb	sp,192(s2)
 74a:	0100                	addi	s0,sp,128
 74c:	0d05                	addi	s10,s10,1
 74e:	02090203          	lb	tp,32(s2)
 752:	0100                	addi	s0,sp,128
 754:	0c05                	addi	s8,s8,1
 756:	08090003          	lb	zero,128(s2)
 75a:	0100                	addi	s0,sp,128
 75c:	1905                	addi	s2,s2,-31
 75e:	0200                	addi	s0,sp,256
 760:	0104                	addi	s1,sp,128
 762:	08090003          	lb	zero,128(s2)
 766:	0100                	addi	s0,sp,128
 768:	1505                	addi	a0,a0,-31
 76a:	06090103          	lb	sp,96(s2)
 76e:	0100                	addi	s0,sp,128
 770:	0905                	addi	s2,s2,1
 772:	0c090003          	lb	zero,192(s2)
 776:	0100                	addi	s0,sp,128
 778:	0c05                	addi	s8,s8,1
 77a:	0a097d03          	.insn	4, 0x0a097d03
 77e:	0100                	addi	s0,sp,128
 780:	0f05                	addi	t5,t5,1
 782:	08090003          	lb	zero,128(s2)
 786:	0100                	addi	s0,sp,128
 788:	0105                	addi	sp,sp,1
 78a:	02090503          	lb	a0,32(s2)
 78e:	0100                	addi	s0,sp,128
 790:	1605                	addi	a2,a2,-31
 792:	0c090203          	lb	tp,192(s2)
 796:	0100                	addi	s0,sp,128
 798:	1805                	addi	a6,a6,-31
 79a:	0e090003          	lb	zero,224(s2)
 79e:	0100                	addi	s0,sp,128
 7a0:	2605                	addiw	a2,a2,1
 7a2:	0a090003          	lb	zero,160(s2)
 7a6:	0100                	addi	s0,sp,128
 7a8:	2305                	addiw	t1,t1,1
 7aa:	0a090203          	lb	tp,160(s2)
 7ae:	0100                	addi	s0,sp,128
 7b0:	0805                	addi	a6,a6,1
 7b2:	0c090503          	lb	a0,192(s2)
 7b6:	0100                	addi	s0,sp,128
 7b8:	1205                	addi	tp,tp,-31 # ffffffffffffffe1 <end+0xffffffff7fff6fd1>
 7ba:	0200                	addi	s0,sp,256
 7bc:	0104                	addi	s1,sp,128
 7be:	0a090003          	lb	zero,160(s2)
 7c2:	0100                	addi	s0,sp,128
 7c4:	0f05                	addi	t5,t5,1
 7c6:	10090103          	lb	sp,256(s2)
 7ca:	0100                	addi	s0,sp,128
 7cc:	0505                	addi	a0,a0,1
 7ce:	0a090003          	lb	zero,160(s2)
 7d2:	0100                	addi	s0,sp,128
 7d4:	0105                	addi	sp,sp,1
 7d6:	12090103          	lb	sp,288(s2)
 7da:	0100                	addi	s0,sp,128
 7dc:	2305                	addiw	t1,t1,1
 7de:	0a090203          	lb	tp,160(s2)
 7e2:	0100                	addi	s0,sp,128
 7e4:	0c05                	addi	s8,s8,1
 7e6:	0c090303          	lb	t1,192(s2)
 7ea:	0100                	addi	s0,sp,128
 7ec:	0505                	addi	a0,a0,1
 7ee:	06090003          	lb	zero,96(s2)
 7f2:	0100                	addi	s0,sp,128
 7f4:	1005                	c.nop	-31
 7f6:	02090203          	lb	tp,32(s2)
 7fa:	0100                	addi	s0,sp,128
 7fc:	1605                	addi	a2,a2,-31
 7fe:	0e090003          	lb	zero,224(s2)
 802:	0100                	addi	s0,sp,128
 804:	0b05                	addi	s6,s6,1
 806:	02090003          	lb	zero,32(s2)
 80a:	0100                	addi	s0,sp,128
 80c:	1b05                	addi	s6,s6,-31
 80e:	06090203          	lb	tp,96(s2)
 812:	0100                	addi	s0,sp,128
 814:	0200                	addi	s0,sp,256
 816:	0104                	addi	s1,sp,128
 818:	0306                	slli	t1,t1,0x1
 81a:	0900                	addi	s0,sp,144
 81c:	000e                	c.slli	zero,0x3
 81e:	0001                	nop
 820:	0402                	c.slli64	s0
 822:	0302                	c.slli64	t1
 824:	0900                	addi	s0,sp,144
 826:	0006                	c.slli	zero,0x1
 828:	0501                	addi	a0,a0,0
 82a:	0402000b          	.insn	4, 0x0402000b
 82e:	0604                	addi	s1,sp,768
 830:	04090003          	lb	zero,64(s2)
 834:	0100                	addi	s0,sp,128
 836:	0905                	addi	s2,s2,1
 838:	0a090103          	lb	sp,160(s2)
 83c:	0100                	addi	s0,sp,128
 83e:	1c05                	addi	s8,s8,-31
 840:	0200                	addi	s0,sp,256
 842:	0204                	addi	s1,sp,256
 844:	0e097b03          	.insn	4, 0x0e097b03
 848:	0100                	addi	s0,sp,128
 84a:	1405                	addi	s0,s0,-31
 84c:	0200                	addi	s0,sp,256
 84e:	0104                	addi	s1,sp,128
 850:	0a090003          	lb	zero,160(s2)
 854:	0100                	addi	s0,sp,128
 856:	0105                	addi	sp,sp,1
 858:	0a090703          	lb	a4,160(s2)
 85c:	0100                	addi	s0,sp,128
 85e:	0c09                	addi	s8,s8,2
 860:	0000                	unimp
 862:	0101                	addi	sp,sp,0
 864:	0075                	c.nop	29
 866:	0000                	unimp
 868:	0005                	c.nop	1
 86a:	0008                	.insn	2, 0x0008
 86c:	00000037          	lui	zero,0x0
 870:	0101                	addi	sp,sp,0
 872:	fb01                	bnez	a4,782 <REGBYTES+0x77a>
 874:	0d0e                	slli	s10,s10,0x3
 876:	0100                	addi	s0,sp,128
 878:	0101                	addi	sp,sp,0
 87a:	0001                	nop
 87c:	0000                	unimp
 87e:	0001                	nop
 880:	0100                	addi	s0,sp,128
 882:	0101                	addi	sp,sp,0
 884:	031f 0000 0000      	.insn	6, 0x031f
 88a:	003a                	c.slli	zero,0xe
 88c:	0000                	unimp
 88e:	00a1                	addi	ra,ra,8
 890:	0000                	unimp
 892:	0102                	c.slli64	sp
 894:	021f 030f 00d2      	.insn	6, 0x00d2030f021f
 89a:	0000                	unimp
 89c:	d201                	beqz	a2,79c <REGBYTES+0x794>
 89e:	0000                	unimp
 8a0:	0100                	addi	s0,sp,128
 8a2:	00bc                	addi	a5,sp,72
 8a4:	0000                	unimp
 8a6:	0502                	c.slli64	a0
 8a8:	000c                	.insn	2, 0x000c
 8aa:	0209                	addi	tp,tp,2 # 2 <REGBYTES-0x6>
 8ac:	0560                	addi	s0,sp,652
 8ae:	8000                	.insn	2, 0x8000
 8b0:	0000                	unimp
 8b2:	0000                	unimp
 8b4:	03050517          	auipc	a0,0x3050
 8b8:	0901                	addi	s2,s2,0
 8ba:	0008                	.insn	2, 0x0008
 8bc:	0301                	addi	t1,t1,0
 8be:	0901                	addi	s2,s2,0
 8c0:	0004                	.insn	2, 0x0004
 8c2:	0301                	addi	t1,t1,0
 8c4:	0901                	addi	s2,s2,0
 8c6:	000c                	.insn	2, 0x000c
 8c8:	0301                	addi	t1,t1,0
 8ca:	0901                	addi	s2,s2,0
 8cc:	000c                	.insn	2, 0x000c
 8ce:	0501                	addi	a0,a0,0 # 30508b4 <STACK_SIZE+0x304f934>
 8d0:	030a                	slli	t1,t1,0x2
 8d2:	0901                	addi	s2,s2,0
 8d4:	000c                	.insn	2, 0x000c
 8d6:	0901                	addi	s2,s2,0
 8d8:	0004                	.insn	2, 0x0004
 8da:	0100                	addi	s0,sp,128
 8dc:	0101                	addi	sp,sp,0
 8de:	0002                	c.slli64	zero
 8e0:	0500                	addi	s0,sp,640
 8e2:	0800                	addi	s0,sp,16
 8e4:	4f00                	lw	s0,24(a4)
 8e6:	0000                	unimp
 8e8:	0100                	addi	s0,sp,128
 8ea:	0101                	addi	sp,sp,0
 8ec:	000d0efb          	.insn	4, 0x000d0efb
 8f0:	0101                	addi	sp,sp,0
 8f2:	0101                	addi	sp,sp,0
 8f4:	0000                	unimp
 8f6:	0100                	addi	s0,sp,128
 8f8:	0000                	unimp
 8fa:	0101                	addi	sp,sp,0
 8fc:	1f01                	addi	t5,t5,-32
 8fe:	0004                	.insn	2, 0x0004
 900:	0000                	unimp
 902:	3a00                	fld	fs0,48(a2)
 904:	0000                	unimp
 906:	a100                	fsd	fs0,0(a0)
 908:	0000                	unimp
 90a:	5f00                	lw	s0,56(a4)
 90c:	0000                	unimp
 90e:	0200                	addi	s0,sp,256
 910:	1f01                	addi	t5,t5,-32
 912:	0f02                	c.slli64	t5
 914:	0000dd07          	.insn	4, 0xdd07
 918:	0100                	addi	s0,sp,128
 91a:	00e5                	addi	ra,ra,25
 91c:	0000                	unimp
 91e:	dd02                	sw	zero,184(sp)
 920:	0000                	unimp
 922:	0100                	addi	s0,sp,128
 924:	00a5                	addi	ra,ra,9
 926:	0000                	unimp
 928:	0000ad03          	lw	s10,0(ra)
 92c:	0300                	addi	s0,sp,384
 92e:	00ed                	addi	ra,ra,27
 930:	0000                	unimp
 932:	f502                	sd	zero,168(sp)
 934:	0000                	unimp
 936:	0200                	addi	s0,sp,256
 938:	2405                	addiw	s0,s0,1
 93a:	0900                	addi	s0,sp,144
 93c:	9402                	jalr	s0
 93e:	0005                	c.nop	1
 940:	0080                	addi	s0,sp,64
 942:	0000                	unimp
 944:	0300                	addi	s0,sp,384
 946:	010d                	addi	sp,sp,3
 948:	0505                	addi	a0,a0,1
 94a:	06090203          	lb	tp,96(s2)
 94e:	0100                	addi	s0,sp,128
 950:	0c05                	addi	s8,s8,1
 952:	08090103          	lb	sp,128(s2)
 956:	0100                	addi	s0,sp,128
 958:	0105                	addi	sp,sp,1
 95a:	04090103          	lb	sp,64(s2)
 95e:	0100                	addi	s0,sp,128
 960:	2405                	addiw	s0,s0,1
 962:	08090203          	lb	tp,128(s2)
 966:	0100                	addi	s0,sp,128
 968:	0505                	addi	a0,a0,1
 96a:	06090203          	lb	tp,96(s2)
 96e:	0100                	addi	s0,sp,128
 970:	0c05                	addi	s8,s8,1
 972:	08090103          	lb	sp,128(s2)
 976:	0100                	addi	s0,sp,128
 978:	0105                	addi	sp,sp,1
 97a:	04090103          	lb	sp,64(s2)
 97e:	0100                	addi	s0,sp,128
 980:	2a05                	addiw	s4,s4,1
 982:	08090203          	lb	tp,128(s2)
 986:	0100                	addi	s0,sp,128
 988:	0505                	addi	a0,a0,1
 98a:	0a090103          	lb	sp,160(s2)
 98e:	0100                	addi	s0,sp,128
 990:	0105                	addi	sp,sp,1
 992:	08090103          	lb	sp,128(s2)
 996:	0100                	addi	s0,sp,128
 998:	2705                	addiw	a4,a4,1
 99a:	08090503          	lb	a0,128(s2)
 99e:	0100                	addi	s0,sp,128
 9a0:	0505                	addi	a0,a0,1
 9a2:	0a090103          	lb	sp,160(s2)
 9a6:	0100                	addi	s0,sp,128
 9a8:	0105                	addi	sp,sp,1
 9aa:	08090103          	lb	sp,128(s2)
 9ae:	0100                	addi	s0,sp,128
 9b0:	2a05                	addiw	s4,s4,1
 9b2:	08091f03          	lh	t5,128(s2)
 9b6:	0100                	addi	s0,sp,128
 9b8:	0505                	addi	a0,a0,1
 9ba:	0a090103          	lb	sp,160(s2)
 9be:	0100                	addi	s0,sp,128
 9c0:	0105                	addi	sp,sp,1
 9c2:	08090103          	lb	sp,128(s2)
 9c6:	0100                	addi	s0,sp,128
 9c8:	2b05                	addiw	s6,s6,1
 9ca:	08090203          	lb	tp,128(s2)
 9ce:	0100                	addi	s0,sp,128
 9d0:	0505                	addi	a0,a0,1
 9d2:	0a090103          	lb	sp,160(s2)
 9d6:	0100                	addi	s0,sp,128
 9d8:	0105                	addi	sp,sp,1
 9da:	08090103          	lb	sp,128(s2)
 9de:	0100                	addi	s0,sp,128
 9e0:	2a05                	addiw	s4,s4,1
 9e2:	08093203          	ld	tp,128(s2)
 9e6:	0100                	addi	s0,sp,128
 9e8:	0505                	addi	a0,a0,1
 9ea:	0a090103          	lb	sp,160(s2)
 9ee:	0100                	addi	s0,sp,128
 9f0:	0105                	addi	sp,sp,1
 9f2:	08090103          	lb	sp,128(s2)
 9f6:	0100                	addi	s0,sp,128
 9f8:	2a05                	addiw	s4,s4,1
 9fa:	08090903          	lb	s2,128(s2)
 9fe:	0100                	addi	s0,sp,128
 a00:	0505                	addi	a0,a0,1
 a02:	0a090103          	lb	sp,160(s2)
 a06:	0100                	addi	s0,sp,128
 a08:	0105                	addi	sp,sp,1
 a0a:	08090103          	lb	sp,128(s2)
 a0e:	0100                	addi	s0,sp,128
 a10:	2805                	addiw	a6,a6,1
 a12:	08090f03          	lb	t5,128(s2)
 a16:	0100                	addi	s0,sp,128
 a18:	0505                	addi	a0,a0,1
 a1a:	0a090103          	lb	sp,160(s2)
 a1e:	0100                	addi	s0,sp,128
 a20:	0105                	addi	sp,sp,1
 a22:	08090103          	lb	sp,128(s2)
 a26:	0100                	addi	s0,sp,128
 a28:	2705                	addiw	a4,a4,1
 a2a:	08090903          	lb	s2,128(s2)
 a2e:	0100                	addi	s0,sp,128
 a30:	0505                	addi	a0,a0,1
 a32:	0a090103          	lb	sp,160(s2)
 a36:	0100                	addi	s0,sp,128
 a38:	0105                	addi	sp,sp,1
 a3a:	08090103          	lb	sp,128(s2)
 a3e:	0100                	addi	s0,sp,128
 a40:	2505                	addiw	a0,a0,1
 a42:	0900ce03          	lbu	t3,144(ra)
 a46:	0008                	.insn	2, 0x0008
 a48:	0501                	addi	a0,a0,0
 a4a:	09000327          	.insn	4, 0x09000327
 a4e:	000a                	c.slli	zero,0x2
 a50:	0501                	addi	a0,a0,0
 a52:	034d                	addi	t1,t1,19
 a54:	0900                	addi	s0,sp,144
 a56:	0006                	c.slli	zero,0x1
 a58:	0401                	addi	s0,s0,0
 a5a:	0502                	c.slli64	a0
 a5c:	030e                	slli	t1,t1,0x3
 a5e:	7e98                	ld	a4,56(a3)
 a60:	0809                	addi	a6,a6,2
 a62:	0100                	addi	s0,sp,128
 a64:	1705                	addi	a4,a4,-31
 a66:	08090203          	lb	tp,128(s2)
 a6a:	0100                	addi	s0,sp,128
 a6c:	0705                	addi	a4,a4,1
 a6e:	08090103          	lb	sp,128(s2)
 a72:	0100                	addi	s0,sp,128
 a74:	10090103          	lb	sp,256(s2)
 a78:	0100                	addi	s0,sp,128
 a7a:	0505                	addi	a0,a0,1
 a7c:	10090103          	lb	sp,256(s2)
 a80:	0100                	addi	s0,sp,128
 a82:	08090403          	lb	s0,128(s2)
 a86:	0100                	addi	s0,sp,128
 a88:	0e090303          	lb	t1,224(s2)
 a8c:	0100                	addi	s0,sp,128
 a8e:	06090303          	lb	t1,96(s2)
 a92:	0100                	addi	s0,sp,128
 a94:	06090103          	lb	sp,96(s2)
 a98:	0100                	addi	s0,sp,128
 a9a:	06090303          	lb	t1,96(s2)
 a9e:	0100                	addi	s0,sp,128
 aa0:	0a090103          	lb	sp,160(s2)
 aa4:	0100                	addi	s0,sp,128
 aa6:	0a090303          	lb	t1,160(s2)
 aaa:	0100                	addi	s0,sp,128
 aac:	0e05                	addi	t3,t3,1
 aae:	0e090303          	lb	t1,224(s2)
 ab2:	0100                	addi	s0,sp,128
 ab4:	0905                	addi	s2,s2,1
 ab6:	0200                	addi	s0,sp,256
 ab8:	0104                	addi	s1,sp,128
 aba:	06090003          	lb	zero,96(s2)
 abe:	0100                	addi	s0,sp,128
 ac0:	0505                	addi	a0,a0,1
 ac2:	04090103          	lb	sp,64(s2)
 ac6:	0100                	addi	s0,sp,128
 ac8:	0a090203          	lb	tp,160(s2)
 acc:	0100                	addi	s0,sp,128
 ace:	04090303          	lb	t1,64(s2)
 ad2:	0100                	addi	s0,sp,128
 ad4:	0105                	addi	sp,sp,1
 ad6:	04090103          	lb	sp,64(s2)
 ada:	0100                	addi	s0,sp,128
 adc:	0a09                	addi	s4,s4,2
 ade:	0000                	unimp
 ae0:	0101                	addi	sp,sp,0
 ae2:	00df 0000 0005      	.insn	6, 0x0005000000df
 ae8:	0008                	.insn	2, 0x0008
 aea:	0045                	c.nop	17
 aec:	0000                	unimp
 aee:	0101                	addi	sp,sp,0
 af0:	fb01                	bnez	a4,a00 <REGBYTES+0x9f8>
 af2:	0d0e                	slli	s10,s10,0x3
 af4:	0100                	addi	s0,sp,128
 af6:	0101                	addi	sp,sp,0
 af8:	0001                	nop
 afa:	0000                	unimp
 afc:	0001                	nop
 afe:	0100                	addi	s0,sp,128
 b00:	0101                	addi	sp,sp,0
 b02:	041f 0000 0000      	.insn	6, 0x041f
 b08:	003a                	c.slli	zero,0xe
 b0a:	0000                	unimp
 b0c:	00a1                	addi	ra,ra,8
 b0e:	0000                	unimp
 b10:	005f 0000 0102      	.insn	6, 0x01020000005f
 b16:	021f 050f 0100      	.insn	6, 0x0100050f021f
 b1c:	0000                	unimp
 b1e:	e501                	bnez	a0,b26 <REGBYTES+0xb1e>
 b20:	0000                	unimp
 b22:	0200                	addi	s0,sp,256
 b24:	0100                	addi	s0,sp,128
 b26:	0000                	unimp
 b28:	a501                	j	1128 <STACK_SIZE+0x1a8>
 b2a:	0000                	unimp
 b2c:	0300                	addi	s0,sp,384
 b2e:	00ad                	addi	ra,ra,11
 b30:	0000                	unimp
 b32:	00200503          	lb	a0,2(zero) # 2 <REGBYTES-0x6>
 b36:	0209                	addi	tp,tp,2 # 2 <REGBYTES-0x6>
 b38:	0750                	addi	a2,sp,900
 b3a:	8000                	.insn	2, 0x8000
 b3c:	0000                	unimp
 b3e:	0000                	unimp
 b40:	0100db03          	lhu	s6,16(ra)
 b44:	0505                	addi	a0,a0,1
 b46:	06090203          	lb	tp,96(s2)
 b4a:	0100                	addi	s0,sp,128
 b4c:	0c05                	addi	s8,s8,1
 b4e:	08090103          	lb	sp,128(s2)
 b52:	0100                	addi	s0,sp,128
 b54:	0105                	addi	sp,sp,1
 b56:	04090103          	lb	sp,64(s2)
 b5a:	0100                	addi	s0,sp,128
 b5c:	2605                	addiw	a2,a2,1
 b5e:	08090203          	lb	tp,128(s2)
 b62:	0100                	addi	s0,sp,128
 b64:	0505                	addi	a0,a0,1
 b66:	0a090103          	lb	sp,160(s2)
 b6a:	0100                	addi	s0,sp,128
 b6c:	0105                	addi	sp,sp,1
 b6e:	08090103          	lb	sp,128(s2)
 b72:	0100                	addi	s0,sp,128
 b74:	0204                	addi	s1,sp,256
 b76:	1305                	addi	t1,t1,-31
 b78:	097fa303          	lw	t1,151(t6)
 b7c:	0008                	.insn	2, 0x0008
 b7e:	0501                	addi	a0,a0,0
 b80:	0311                	addi	t1,t1,4
 b82:	0901                	addi	s2,s2,0
 b84:	0008                	.insn	2, 0x0008
 b86:	0501                	addi	a0,a0,0
 b88:	0305                	addi	t1,t1,1
 b8a:	0900                	addi	s0,sp,144
 b8c:	0008                	.insn	2, 0x0008
 b8e:	0501                	addi	a0,a0,0
 b90:	0318                	addi	a4,sp,384
 b92:	0900                	addi	s0,sp,144
 b94:	0004                	.insn	2, 0x0004
 b96:	0501                	addi	a0,a0,0
 b98:	0900030f          	.insn	4, 0x0900030f
 b9c:	0008                	.insn	2, 0x0008
 b9e:	0501                	addi	a0,a0,0
 ba0:	0314                	addi	a3,sp,384
 ba2:	0901                	addi	s2,s2,0
 ba4:	0002                	c.slli64	zero
 ba6:	0501                	addi	a0,a0,0
 ba8:	0309                	addi	t1,t1,2
 baa:	0901                	addi	s2,s2,0
 bac:	0008                	.insn	2, 0x0008
 bae:	0501                	addi	a0,a0,0
 bb0:	0305                	addi	t1,t1,1
 bb2:	0901                	addi	s2,s2,0
 bb4:	000c                	.insn	2, 0x000c
 bb6:	0501                	addi	a0,a0,0
 bb8:	0301                	addi	t1,t1,0
 bba:	0901                	addi	s2,s2,0
 bbc:	0008                	.insn	2, 0x0008
 bbe:	0901                	addi	s2,s2,0
 bc0:	000a                	c.slli	zero,0x2
 bc2:	0100                	addi	s0,sp,128
 bc4:	Address 0xbc4 is out of bounds.


Disassembly of section .debug_line_str:

0000000000000000 <.debug_line_str>:
   0:	6d6f682f          	.insn	4, 0x6d6f682f
   4:	2f65                	addiw	t5,t5,25
   6:	6e617567          	.insn	4, 0x6e617567
   a:	64616467          	.insn	4, 0x64616467
   e:	2f676e6f          	jal	t3,76304 <STACK_SIZE+0x75384>
  12:	6972                	ld	s2,280(sp)
  14:	2f766373          	csrrsi	t1,0x2f7,12
  18:	6966                	ld	s2,88(sp)
  1a:	6d72                	ld	s10,280(sp)
  1c:	7261                	lui	tp,0xffff8
  1e:	2f65                	addiw	t5,t5,25
  20:	356d6567          	.insn	4, 0x356d6567
  24:	722d                	lui	tp,0xfffeb
  26:	7369                	lui	t1,0xffffa
  28:	622d7663          	bgeu	s10,sp,654 <REGBYTES+0x64c>
  2c:	7261                	lui	tp,0xffff8
  2e:	2d65                	addiw	s10,s10,25
  30:	656d                	lui	a0,0x1b
  32:	6174                	ld	a3,192(a0)
  34:	2d6c                	fld	fa1,216(a0)
  36:	6e69                	lui	t3,0x1a
  38:	0074                	addi	a3,sp,12
  3a:	00637273          	csrrci	tp,0x6,6
  3e:	6e72656b          	.insn	4, 0x6e72656b
  42:	6c65                	lui	s8,0x19
  44:	6576                	ld	a0,344(sp)
  46:	00732e63          	.insn	4, 0x00732e63
  4a:	72617473          	csrrci	s0,mhpmevent6h,2
  4e:	7574                	ld	a3,232(a0)
  50:	2e70                	fld	fa2,216(a2)
  52:	72730073          	.insn	4, 0x72730073
  56:	72742f63          	.insn	4, 0x72742f63
  5a:	7061                	c.lui	zero,0xffff8
  5c:	632e                	ld	t1,200(sp)
  5e:	2f00                	fld	fs0,24(a4)
  60:	6f68                	ld	a0,216(a4)
  62:	656d                	lui	a0,0x1b
  64:	6175672f          	.insn	4, 0x6175672f
  68:	676e                	ld	a4,216(sp)
  6a:	6164                	ld	s1,192(a0)
  6c:	6f64                	ld	s1,216(a4)
  6e:	676e                	ld	a4,216(sp)
  70:	6f6f742f          	.insn	4, 0x6f6f742f
  74:	736c                	ld	a1,224(a4)
  76:	7369722f          	.insn	4, 0x7369722f
  7a:	672f7663          	bgeu	t5,s2,6e6 <REGBYTES+0x6de>
  7e:	6d2d6363          	bltu	s10,s2,744 <REGBYTES+0x73c>
  82:	7361                	lui	t1,0xffff8
  84:	6574                	ld	a3,200(a0)
  86:	2f72                	fld	ft10,280(sp)
  88:	72737973          	csrrci	s2,mhpmevent7h,6
  8c:	2f746f6f          	jal	t5,46b82 <STACK_SIZE+0x45c02>
  90:	7375                	lui	t1,0xffffd
  92:	2f72                	fld	ft10,280(sp)
  94:	6e69                	lui	t3,0x1a
  96:	64756c63          	bltu	a0,t2,6ee <REGBYTES+0x6e6>
  9a:	2f65                	addiw	t5,t5,25
  9c:	6962                	ld	s2,24(sp)
  9e:	7374                	ld	a3,224(a4)
  a0:	6900                	ld	s0,16(a0)
  a2:	636e                	ld	t1,216(sp)
  a4:	7400                	ld	s0,40(s0)
  a6:	7079                	c.lui	zero,0xffffe
  a8:	7365                	lui	t1,0xffff9
  aa:	682e                	ld	a6,200(sp)
  ac:	7300                	ld	s0,32(a4)
  ae:	6474                	ld	a3,200(s0)
  b0:	6e69                	lui	t3,0x1a
  b2:	2d74                	fld	fa3,216(a0)
  b4:	6975                	lui	s2,0x1d
  b6:	746e                	ld	s0,248(sp)
  b8:	2e6e                	fld	ft8,216(sp)
  ba:	0068                	addi	a0,sp,12
  bc:	6175                	addi	sp,sp,368
  be:	7472                	ld	s0,312(sp)
  c0:	682e                	ld	a6,200(sp)
  c2:	7300                	ld	s0,32(a4)
  c4:	6372                	ld	t1,280(sp)
  c6:	7261752f          	.insn	4, 0x7261752f
  ca:	2e74                	fld	fa3,216(a2)
  cc:	72730063          	beq	t1,t2,7ec <REGBYTES+0x7e4>
  d0:	616d2f63          	.insn	4, 0x616d2f63
  d4:	6e69                	lui	t3,0x1a
  d6:	632e                	ld	t1,200(sp)
  d8:	7300                	ld	s0,32(a4)
  da:	6372                	ld	t1,280(sp)
  dc:	6174732f          	.insn	4, 0x6174732f
  e0:	7472                	ld	s0,312(sp)
  e2:	632e                	ld	t1,200(sp)
  e4:	7200                	ld	s0,32(a2)
  e6:	7369                	lui	t1,0xffffa
  e8:	682e7663          	bgeu	t3,sp,774 <REGBYTES+0x76c>
  ec:	7400                	ld	s0,40(s0)
  ee:	6d69                	lui	s10,0x1a
  f0:	7265                	lui	tp,0xffff9
  f2:	682e                	ld	a6,200(sp)
  f4:	6d00                	ld	s0,24(a0)
  f6:	6961                	lui	s2,0x18
  f8:	2e6e                	fld	ft8,216(sp)
  fa:	0068                	addi	a0,sp,12
  fc:	2f637273          	csrrci	tp,0x2f6,6
 100:	6974                	ld	a3,208(a0)
 102:	656d                	lui	a0,0x1b
 104:	2e72                	fld	ft8,280(sp)
 106:	Address 0x106 is out of bounds.


Disassembly of section .debug_info:

0000000000000000 <.debug_info>:
   0:	0025                	c.nop	9
   2:	0000                	unimp
   4:	0005                	c.nop	1
   6:	0801                	addi	a6,a6,0
   8:	0000                	unimp
   a:	0000                	unimp
   c:	0001                	nop
   e:	0000                	unimp
  10:	3000                	fld	fs0,32(s0)
  12:	0000                	unimp
  14:	0080                	addi	s0,sp,64
  16:	0000                	unimp
  18:	de00                	sw	s0,56(a2)
  1a:	0002                	c.slli64	zero
  1c:	0000                	unimp
  1e:	1000                	addi	s0,sp,32
  20:	0000                	unimp
  22:	4a00                	lw	s0,16(a2)
  24:	0000                	unimp
  26:	0100                	addi	s0,sp,128
  28:	2480                	fld	fs0,8(s1)
  2a:	0000                	unimp
  2c:	0500                	addi	s0,sp,640
  2e:	0100                	addi	s0,sp,128
  30:	1408                	addi	a0,sp,544
  32:	0000                	unimp
  34:	0100                	addi	s0,sp,128
  36:	03ac                	addi	a1,sp,456
  38:	0000                	unimp
  3a:	0000                	unimp
  3c:	8000                	.insn	2, 0x8000
  3e:	0000                	unimp
  40:	0000                	unimp
  42:	562a                	lw	a2,168(sp)
  44:	0000                	unimp
  46:	1000                	addi	s0,sp,32
  48:	0000                	unimp
  4a:	4a00                	lw	s0,16(a2)
  4c:	0000                	unimp
  4e:	0100                	addi	s0,sp,128
  50:	8580                	.insn	2, 0x8580
  52:	0001                	nop
  54:	0500                	addi	s0,sp,640
  56:	0100                	addi	s0,sp,128
  58:	2808                	fld	fa0,16(s0)
  5a:	0000                	unimp
  5c:	0800                	addi	s0,sp,16
  5e:	006a                	c.slli	zero,0x1a
  60:	0000                	unimp
  62:	541d                	li	s0,-25
  64:	0000                	unimp
  66:	0000                	unimp
  68:	0000                	unimp
  6a:	7a00                	ld	s0,48(a2)
  6c:	0001                	nop
  6e:	0080                	addi	s0,sp,64
  70:	0000                	unimp
  72:	9e00                	.insn	2, 0x9e00
  74:	0001                	nop
  76:	0000                	unimp
  78:	0000                	unimp
  7a:	2200                	fld	fs0,0(a2)
  7c:	0004                	.insn	2, 0x0004
  7e:	0100                	addi	s0,sp,128
  80:	0801                	addi	a6,a6,0
  82:	0105                	addi	sp,sp,1
  84:	0000                	unimp
  86:	0201                	addi	tp,tp,0 # ffffffffffff9000 <end+0xffffffff7ffefff0>
  88:	00014307          	.insn	4, 0x00014307
  8c:	0100                	addi	s0,sp,128
  8e:	0704                	addi	s1,sp,896
  90:	00f8                	addi	a4,sp,76
  92:	0000                	unimp
  94:	0801                	addi	a6,a6,0
  96:	0000f307          	.insn	4, 0xf307
  9a:	0100                	addi	s0,sp,128
  9c:	0601                	addi	a2,a2,0
  9e:	00000107          	.insn	4, 0x0107
  a2:	0201                	addi	tp,tp,0 # 0 <REGBYTES-0x8>
  a4:	6705                	lui	a4,0x1
  a6:	0001                	nop
  a8:	0900                	addi	s0,sp,144
  aa:	0504                	addi	s1,sp,640
  ac:	6e69                	lui	t3,0x1a
  ae:	0074                	addi	a3,sp,12
  b0:	0801                	addi	a6,a6,0
  b2:	2705                	addiw	a4,a4,1 # 1001 <STACK_SIZE+0x81>
  b4:	0001                	nop
  b6:	0200                	addi	s0,sp,256
  b8:	0130                	addi	a2,sp,136
  ba:	0000                	unimp
  bc:	2d02                	fld	fs10,0(sp)
  be:	0000431b          	.insn	4, 0x431b
  c2:	0100                	addi	s0,sp,128
  c4:	0801                	addi	a6,a6,0
  c6:	010e                	slli	sp,sp,0x3
  c8:	0000                	unimp
  ca:	720a                	ld	tp,160(sp)
  cc:	0000                	unimp
  ce:	0200                	addi	s0,sp,256
  d0:	0132                	slli	sp,sp,0xc
  d2:	0000                	unimp
  d4:	66141b03          	lh	s6,1633(s0)
  d8:	0000                	unimp
  da:	0b00                	addi	s0,sp,400
  dc:	0064                	addi	s1,sp,12
  de:	0000                	unimp
  e0:	0701                	addi	a4,a4,0
  e2:	5805                	li	a6,-31
  e4:	0000                	unimp
  e6:	0900                	addi	s0,sp,144
  e8:	00100003          	lb	zero,1(zero) # 1 <REGBYTES-0x7>
  ec:	0080                	addi	s0,sp,64
  ee:	0000                	unimp
  f0:	0300                	addi	s0,sp,384
  f2:	011f 0000 b02a      	.insn	6, 0xb02a0000011f
  f8:	0000                	unimp
  fa:	0400                	addi	s0,sp,512
  fc:	00000043          	fmadd.s	ft0,ft0,ft0,ft0,rne
 100:	0300                	addi	s0,sp,384
 102:	0000013b          	addw	sp,zero,zero
 106:	c028                	sw	a0,64(s0)
 108:	0000                	unimp
 10a:	0400                	addi	s0,sp,512
 10c:	00c0                	addi	s0,sp,68
 10e:	0000                	unimp
 110:	0c00                	addi	s0,sp,528
 112:	7908                	ld	a0,48(a0)
 114:	0000                	unimp
 116:	0d00                	addi	s0,sp,656
 118:	00000113          	li	sp,0
 11c:	3101                	addiw	sp,sp,-32
 11e:	d206                	sw	ra,36(sp)
 120:	0002                	c.slli64	zero
 122:	0080                	addi	s0,sp,64
 124:	0000                	unimp
 126:	4600                	lw	s0,8(a2)
 128:	0000                	unimp
 12a:	0000                	unimp
 12c:	0000                	unimp
 12e:	0100                	addi	s0,sp,128
 130:	ff9c                	sd	a5,56(a5)
 132:	0000                	unimp
 134:	0500                	addi	s0,sp,640
 136:	000000e7          	jalr	zero # 0 <REGBYTES-0x8>
 13a:	7e0e                	ld	t3,224(sp)
 13c:	0000                	unimp
 13e:	0200                	addi	s0,sp,256
 140:	6891                	lui	a7,0x4
 142:	4705                	li	a4,1
 144:	16000003          	lb	zero,352(zero) # 160 <REGBYTES+0x158>
 148:	007e                	c.slli	zero,0x1f
 14a:	0000                	unimp
 14c:	9102                	jalr	sp
 14e:	0060                	addi	s0,sp,12
 150:	560e                	lw	a2,224(sp)
 152:	0001                	nop
 154:	0100                	addi	s0,sp,128
 156:	061f 0254 8000      	.insn	6, 0x80000254061f
 15c:	0000                	unimp
 15e:	0000                	unimp
 160:	007e                	c.slli	zero,0x1f
 162:	0000                	unimp
 164:	0000                	unimp
 166:	0000                	unimp
 168:	9c01                	subw	s0,s0,s0
 16a:	0139                	addi	sp,sp,14
 16c:	0000                	unimp
 16e:	e706                	sd	ra,392(sp)
 170:	0000                	unimp
 172:	1f00                	addi	s0,sp,944
 174:	007e                	c.slli	zero,0x1f
 176:	0000                	unimp
 178:	9102                	jalr	sp
 17a:	0758                	addi	a4,sp,900
 17c:	696d                	lui	s2,0x1b
 17e:	0065                	c.nop	25
 180:	1c20                	addi	s0,sp,568
 182:	0139                	addi	sp,sp,14
 184:	0000                	unimp
 186:	9102                	jalr	sp
 188:	0068                	addi	a0,sp,12
 18a:	0801                	addi	a6,a6,0
 18c:	0000ee07          	.insn	4, 0xee07
 190:	0f00                	addi	s0,sp,912
 192:	00d6                	slli	ra,ra,0x15
 194:	0000                	unimp
 196:	0901                	addi	s2,s2,0 # 1b000 <STACK_SIZE+0x1a080>
 198:	7a06                	ld	s4,96(sp)
 19a:	0001                	nop
 19c:	0080                	addi	s0,sp,64
 19e:	0000                	unimp
 1a0:	da00                	sw	s0,48(a2)
 1a2:	0000                	unimp
 1a4:	0000                	unimp
 1a6:	0000                	unimp
 1a8:	0100                	addi	s0,sp,128
 1aa:	069c                	addi	a5,sp,832
 1ac:	000000e7          	jalr	zero # 0 <REGBYTES-0x8>
 1b0:	7e09                	lui	t3,0xfffe2
 1b2:	0000                	unimp
 1b4:	0200                	addi	s0,sp,256
 1b6:	5891                	li	a7,-28
 1b8:	0010                	.insn	2, 0x0010
 1ba:	0002                	c.slli64	zero
 1bc:	0080                	addi	s0,sp,64
 1be:	0000                	unimp
 1c0:	1c00                	addi	s0,sp,560
 1c2:	0000                	unimp
 1c4:	0000                	unimp
 1c6:	0000                	unimp
 1c8:	0700                	addi	s0,sp,896
 1ca:	696d                	lui	s2,0x1b
 1cc:	0065                	c.nop	25
 1ce:	2411                	addiw	s0,s0,4
 1d0:	0139                	addi	sp,sp,14
 1d2:	0000                	unimp
 1d4:	9102                	jalr	sp
 1d6:	0068                	addi	a0,sp,12
 1d8:	0000                	unimp
 1da:	02b0                	addi	a2,sp,328
 1dc:	0000                	unimp
 1de:	0005                	c.nop	1
 1e0:	0801                	addi	a6,a6,0
 1e2:	0130                	addi	a2,sp,136
 1e4:	0000                	unimp
 1e6:	6a09                	lui	s4,0x2
 1e8:	0000                	unimp
 1ea:	1d00                	addi	s0,sp,688
 1ec:	000000c3          	fmadd.s	ft1,ft0,ft0,ft0,rne
 1f0:	0000                	unimp
 1f2:	0000                	unimp
 1f4:	0318                	addi	a4,sp,384
 1f6:	8000                	.insn	2, 0x8000
 1f8:	0000                	unimp
 1fa:	0000                	unimp
 1fc:	0248                	addi	a0,sp,260
 1fe:	0000                	unimp
 200:	0000                	unimp
 202:	0000                	unimp
 204:	00000603          	lb	a2,0(zero) # 0 <REGBYTES-0x8>
 208:	0102                	c.slli64	sp
 20a:	0508                	addi	a0,sp,640
 20c:	0001                	nop
 20e:	0200                	addi	s0,sp,256
 210:	0702                	c.slli64	a4
 212:	00000143          	fmadd.s	ft2,ft0,ft0,ft0,rne
 216:	0402                	c.slli64	s0
 218:	0000f807          	.insn	4, 0xf807
 21c:	0200                	addi	s0,sp,256
 21e:	0708                	addi	a0,sp,896
 220:	000000f3          	.insn	4, 0x00f3
 224:	0102                	c.slli64	sp
 226:	0706                	slli	a4,a4,0x1
 228:	0001                	nop
 22a:	0500                	addi	s0,sp,640
 22c:	01e4                	addi	s1,sp,204
 22e:	0000                	unimp
 230:	2602                	fld	fa2,0(sp)
 232:	00002e17          	auipc	t3,0x2
 236:	0200                	addi	s0,sp,256
 238:	0502                	c.slli64	a0
 23a:	00000167          	jalr	sp,zero # 0 <REGBYTES-0x8>
 23e:	040a                	slli	s0,s0,0x2
 240:	6905                	lui	s2,0x1
 242:	746e                	ld	s0,248(sp)
 244:	0500                	addi	s0,sp,640
 246:	0195                	addi	gp,gp,5
 248:	0000                	unimp
 24a:	2a02                	fld	fs4,0(sp)
 24c:	3c16                	fld	fs8,352(sp)
 24e:	0000                	unimp
 250:	0200                	addi	s0,sp,256
 252:	0508                	addi	a0,sp,640
 254:	00000127          	.insn	4, 0x0127
 258:	0102                	c.slli64	sp
 25a:	0e08                	addi	a0,sp,784
 25c:	0001                	nop
 25e:	0b00                	addi	s0,sp,400
 260:	007e                	c.slli	zero,0x1f
 262:	0000                	unimp
 264:	e605                	bnez	a2,28c <REGBYTES+0x284>
 266:	0001                	nop
 268:	0300                	addi	s0,sp,384
 26a:	1318                	addi	a4,sp,416
 26c:	0051                	c.nop	20
 26e:	0000                	unimp
 270:	8a0c                	.insn	2, 0x8a0c
 272:	0000                	unimp
 274:	0500                	addi	s0,sp,640
 276:	00000197          	auipc	gp,0x0
 27a:	6b141a03          	lh	s4,1713(s0)
 27e:	0000                	unimp
 280:	0d00                	addi	s0,sp,656
 282:	003c0407          	.insn	4, 0x003c0407
 286:	0000                	unimp
 288:	0b04                	addi	s1,sp,400
 28a:	3a06                	fld	fs4,96(sp)
 28c:	0001                	nop
 28e:	0100                	addi	s0,sp,128
 290:	0230                	addi	a2,sp,264
 292:	0000                	unimp
 294:	0100                	addi	s0,sp,128
 296:	02c0                	addi	s0,sp,324
 298:	0000                	unimp
 29a:	0100                	addi	s0,sp,128
 29c:	0210                	addi	a2,sp,256
 29e:	0000                	unimp
 2a0:	0101                	addi	sp,sp,0
 2a2:	0284                	addi	s1,sp,320
 2a4:	0000                	unimp
 2a6:	0100                	addi	s0,sp,128
 2a8:	028d                	addi	t0,t0,3
 2aa:	0000                	unimp
 2ac:	0101                	addi	sp,sp,0
 2ae:	01be                	slli	gp,gp,0xf
 2b0:	0000                	unimp
 2b2:	0102                	c.slli64	sp
 2b4:	00000227          	.insn	4, 0x0227
 2b8:	02190103          	lb	sp,33(s2) # 1021 <STACK_SIZE+0xa1>
 2bc:	0000                	unimp
 2be:	0104                	addi	s1,sp,128
 2c0:	0000027b          	.insn	4, 0x027b
 2c4:	0105                	addi	sp,sp,1
 2c6:	0269                	addi	tp,tp,26 # 1a <REGBYTES+0x12>
 2c8:	0000                	unimp
 2ca:	0106                	slli	sp,sp,0x1
 2cc:	0272                	slli	tp,tp,0x1c
 2ce:	0000                	unimp
 2d0:	02020107          	.insn	4, 0x02020107
 2d4:	0000                	unimp
 2d6:	0180                	addi	s0,sp,192
 2d8:	0000024f          	fnmadd.s	ft4,ft0,ft0,ft0,rne
 2dc:	017b0103          	lb	sp,23(s6)
 2e0:	0000                	unimp
 2e2:	0108                	addi	a0,sp,128
 2e4:	01a0                	addi	s0,sp,200
 2e6:	0000                	unimp
 2e8:	0101                	addi	sp,sp,0
 2ea:	0189                	addi	gp,gp,2 # 278 <REGBYTES+0x270>
 2ec:	0000                	unimp
 2ee:	0102                	c.slli64	sp
 2f0:	01d8                	addi	a4,sp,196
 2f2:	0000                	unimp
 2f4:	0104                	addi	s1,sp,128
 2f6:	025d                	addi	tp,tp,23 # 17 <REGBYTES+0xf>
 2f8:	0000                	unimp
 2fa:	0108                	addi	a0,sp,128
 2fc:	0239                	addi	tp,tp,14 # e <REGBYTES+0x6>
 2fe:	0000                	unimp
 300:	0110                	addi	a2,sp,128
 302:	02a0                	addi	s0,sp,328
 304:	0000                	unimp
 306:	0120                	addi	s0,sp,136
 308:	02ac                	addi	a1,sp,328
 30a:	0000                	unimp
 30c:	0140                	addi	s0,sp,132
 30e:	01f6                	slli	gp,gp,0x1d
 310:	0000                	unimp
 312:	0080                	addi	s0,sp,64
 314:	2206                	fld	ft4,64(sp)
 316:	0002                	c.slli64	zero
 318:	0500                	addi	s0,sp,640
 31a:	4f1a                	lw	t5,132(sp)
 31c:	0001                	nop
 31e:	0900                	addi	s0,sp,144
 320:	00100803          	lb	a6,1(zero) # 1 <REGBYTES-0x7>
 324:	0080                	addi	s0,sp,64
 326:	0000                	unimp
 328:	0700                	addi	s0,sp,896
 32a:	0096                	slli	ra,ra,0x5
 32c:	0000                	unimp
 32e:	ac04                	fsd	fs1,24(s0)
 330:	0001                	nop
 332:	2d00                	fld	fs0,24(a0)
 334:	04e6                	slli	s1,s1,0x19
 336:	8000                	.insn	2, 0x8000
 338:	0000                	unimp
 33a:	0000                	unimp
 33c:	007a                	c.slli	zero,0x1e
 33e:	0000                	unimp
 340:	0000                	unimp
 342:	0000                	unimp
 344:	9c01                	subw	s0,s0,s0
 346:	0195                	addi	gp,gp,5
 348:	0000                	unimp
 34a:	2d006403          	lwu	s0,720(zero) # 2d0 <REGBYTES+0x2c8>
 34e:	4320                	lw	s0,64(a4)
 350:	0000                	unimp
 352:	0200                	addi	s0,sp,256
 354:	5891                	li	a7,-28
 356:	6e08                	ld	a0,24(a2)
 358:	2e00                	fld	fs0,24(a2)
 35a:	3c12                	fld	fs8,288(sp)
 35c:	0000                	unimp
 35e:	0200                	addi	s0,sp,256
 360:	6891                	lui	a7,0x4
 362:	6308                	ld	a0,0(a4)
 364:	2f00                	fld	fs0,24(a4)
 366:	6409                	lui	s0,0x2
 368:	0000                	unimp
 36a:	0200                	addi	s0,sp,256
 36c:	6c91                	lui	s9,0x4
 36e:	0400                	addi	s0,sp,512
 370:	011f 0000 9a24      	.insn	6, 0x9a240000011f
 376:	0004                	.insn	2, 0x0004
 378:	0080                	addi	s0,sp,64
 37a:	0000                	unimp
 37c:	4c00                	lw	s0,24(s0)
 37e:	0000                	unimp
 380:	0000                	unimp
 382:	0000                	unimp
 384:	0100                	addi	s0,sp,128
 386:	be9c                	fsd	fa5,56(a3)
 388:	0001                	nop
 38a:	0300                	addi	s0,sp,384
 38c:	0078                	addi	a4,sp,12
 38e:	2024                	fld	fs1,64(s0)
 390:	00000043          	fmadd.s	ft0,ft0,ft0,ft0,rne
 394:	9102                	jalr	sp
 396:	0068                	addi	a0,sp,12
 398:	ee04                	sd	s1,24(a2)
 39a:	0001                	nop
 39c:	2200                	fld	fs0,0(a2)
 39e:	0478                	addi	a4,sp,524
 3a0:	8000                	.insn	2, 0x8000
 3a2:	0000                	unimp
 3a4:	0000                	unimp
 3a6:	0022                	c.slli	zero,0x8
 3a8:	0000                	unimp
 3aa:	0000                	unimp
 3ac:	0000                	unimp
 3ae:	9c01                	subw	s0,s0,s0
 3b0:	000001e7          	jalr	gp,zero # 0 <REGBYTES-0x8>
 3b4:	22006303          	lwu	t1,544(zero) # 220 <REGBYTES+0x218>
 3b8:	00007e13          	andi	t3,zero,0
 3bc:	0200                	addi	s0,sp,256
 3be:	6f91                	lui	t6,0x4
 3c0:	0400                	addi	s0,sp,512
 3c2:	0000013b          	addw	sp,zero,zero
 3c6:	281a                	fld	fa6,384(sp)
 3c8:	0004                	.insn	2, 0x0004
 3ca:	0080                	addi	s0,sp,64
 3cc:	0000                	unimp
 3ce:	5000                	lw	s0,32(s0)
 3d0:	0000                	unimp
 3d2:	0000                	unimp
 3d4:	0000                	unimp
 3d6:	0100                	addi	s0,sp,128
 3d8:	109c                	addi	a5,sp,96
 3da:	0002                	c.slli64	zero
 3dc:	0300                	addi	s0,sp,384
 3de:	1a1a0073          	.insn	4, 0x1a1a0073
 3e2:	0210                	addi	a2,sp,256
 3e4:	0000                	unimp
 3e6:	9102                	jalr	sp
 3e8:	0068                	addi	a0,sp,12
 3ea:	00008507          	.insn	4, 0x8507
 3ee:	0400                	addi	s0,sp,512
 3f0:	0296                	slli	t0,t0,0x5
 3f2:	0000                	unimp
 3f4:	0418                	addi	a4,sp,512
 3f6:	0004                	.insn	2, 0x0004
 3f8:	0080                	addi	s0,sp,64
 3fa:	0000                	unimp
 3fc:	2400                	fld	fs0,8(s0)
 3fe:	0000                	unimp
 400:	0000                	unimp
 402:	0000                	unimp
 404:	0100                	addi	s0,sp,128
 406:	3e9c                	fld	fa5,56(a3)
 408:	0002                	c.slli64	zero
 40a:	0300                	addi	s0,sp,384
 40c:	15180063          	beq	a6,a7,54c <REGBYTES+0x544>
 410:	007e                	c.slli	zero,0x1f
 412:	0000                	unimp
 414:	9102                	jalr	sp
 416:	c70e006f          	j	fffffffffffe0886 <end+0xffffffff7ffd7876>
 41a:	0001                	nop
 41c:	0100                	addi	s0,sp,128
 41e:	0c12                	slli	s8,s8,0x4
 420:	0064                	addi	s1,sp,12
 422:	0000                	unimp
 424:	03b8                	addi	a4,sp,456
 426:	8000                	.insn	2, 0x8000
 428:	0000                	unimp
 42a:	0000                	unimp
 42c:	004c                	addi	a1,sp,4
 42e:	0000                	unimp
 430:	0000                	unimp
 432:	0000                	unimp
 434:	9c01                	subw	s0,s0,s0
 436:	026e                	slli	tp,tp,0x1b
 438:	0000                	unimp
 43a:	00686303          	lwu	t1,6(a6)
 43e:	2112                	fld	ft2,256(sp)
 440:	0064                	addi	s1,sp,12
 442:	0000                	unimp
 444:	9102                	jalr	sp
 446:	006c                	addi	a1,sp,12
 448:	0001710f          	.insn	4, 0x0001710f
 44c:	0100                	addi	s0,sp,128
 44e:	03180607          	.insn	4, 0x03180607
 452:	8000                	.insn	2, 0x8000
 454:	0000                	unimp
 456:	0000                	unimp
 458:	00a0                	addi	s0,sp,72
 45a:	0000                	unimp
 45c:	0000                	unimp
 45e:	0000                	unimp
 460:	9c01                	subw	s0,s0,s0
 462:	4506                	lw	a0,64(sp)
 464:	0002                	c.slli64	zero
 466:	0900                	addi	s0,sp,144
 468:	9b0e                	add	s6,s6,gp
 46a:	0000                	unimp
 46c:	0200                	addi	s0,sp,256
 46e:	6c91                	lui	s9,0x4
 470:	b406                	fsd	ft1,40(sp)
 472:	0001                	nop
 474:	0a00                	addi	s0,sp,272
 476:	9b0e                	add	s6,s6,gp
 478:	0000                	unimp
 47a:	0200                	addi	s0,sp,256
 47c:	6891                	lui	a7,0x4
 47e:	b806                	fsd	ft1,48(sp)
 480:	0002                	c.slli64	zero
 482:	0b00                	addi	s0,sp,400
 484:	9b0e                	add	s6,s6,gp
 486:	0000                	unimp
 488:	0200                	addi	s0,sp,256
 48a:	6491                	lui	s1,0x4
 48c:	0000                	unimp
 48e:	000000b3          	add	ra,zero,zero
 492:	0005                	c.nop	1
 494:	0801                	addi	a6,a6,0
 496:	0222                	slli	tp,tp,0x8
 498:	0000                	unimp
 49a:	6a02                	ld	s4,0(sp)
 49c:	0000                	unimp
 49e:	1d00                	addi	s0,sp,688
 4a0:	00ce                	slli	ra,ra,0x13
 4a2:	0000                	unimp
 4a4:	0000                	unimp
 4a6:	0000                	unimp
 4a8:	0560                	addi	s0,sp,652
 4aa:	8000                	.insn	2, 0x8000
 4ac:	0000                	unimp
 4ae:	0000                	unimp
 4b0:	0034                	addi	a3,sp,8
 4b2:	0000                	unimp
 4b4:	0000                	unimp
 4b6:	0000                	unimp
 4b8:	0864                	addi	s1,sp,28
 4ba:	0000                	unimp
 4bc:	0101                	addi	sp,sp,0
 4be:	0508                	addi	a0,sp,640
 4c0:	0001                	nop
 4c2:	0100                	addi	s0,sp,128
 4c4:	0702                	c.slli64	a4
 4c6:	00000143          	fmadd.s	ft2,ft0,ft0,ft0,rne
 4ca:	0401                	addi	s0,s0,0 # 2000 <STACK_SIZE+0x1080>
 4cc:	0000f807          	.insn	4, 0xf807
 4d0:	0100                	addi	s0,sp,128
 4d2:	0708                	addi	a0,sp,896
 4d4:	000000f3          	.insn	4, 0x00f3
 4d8:	0101                	addi	sp,sp,0
 4da:	0706                	slli	a4,a4,0x1
 4dc:	0001                	nop
 4de:	0100                	addi	s0,sp,128
 4e0:	0502                	c.slli64	a0
 4e2:	00000167          	jalr	sp,zero # 0 <REGBYTES-0x8>
 4e6:	69050403          	lb	s0,1680(a0) # 1b690 <STACK_SIZE+0x1a710>
 4ea:	746e                	ld	s0,248(sp)
 4ec:	0100                	addi	s0,sp,128
 4ee:	0508                	addi	a0,sp,640
 4f0:	00000127          	.insn	4, 0x0127
 4f4:	0101                	addi	sp,sp,0
 4f6:	0e08                	addi	a0,sp,784
 4f8:	0001                	nop
 4fa:	0400                	addi	s0,sp,512
 4fc:	0066                	c.slli	zero,0x19
 4fe:	0000                	unimp
 500:	3b05                	addiw	s6,s6,-31
 502:	0001                	nop
 504:	0200                	addi	s0,sp,256
 506:	0628                	addi	a0,sp,776
 508:	0084                	addi	s1,sp,64
 50a:	0000                	unimp
 50c:	8406                	mv	s0,ra
 50e:	0000                	unimp
 510:	0000                	unimp
 512:	006d0807          	.insn	4, 0x006d0807
 516:	0000                	unimp
 518:	7108                	ld	a0,32(a0)
 51a:	0001                	nop
 51c:	0200                	addi	s0,sp,256
 51e:	0626                	slli	a2,a2,0x9
 520:	0098                	addi	a4,sp,64
 522:	0000                	unimp
 524:	0009                	c.nop	2
 526:	c90a                	sw	sp,144(sp)
 528:	0002                	c.slli64	zero
 52a:	0100                	addi	s0,sp,128
 52c:	0506                	slli	a0,a0,0x1
 52e:	0058                	addi	a4,sp,4
 530:	0000                	unimp
 532:	0560                	addi	s0,sp,652
 534:	8000                	.insn	2, 0x8000
 536:	0000                	unimp
 538:	0000                	unimp
 53a:	0034                	addi	a3,sp,8
 53c:	0000                	unimp
 53e:	0000                	unimp
 540:	0000                	unimp
 542:	9c01                	subw	s0,s0,s0
 544:	b700                	fsd	fs0,40(a4)
 546:	0002                	c.slli64	zero
 548:	0500                	addi	s0,sp,640
 54a:	0100                	addi	s0,sp,128
 54c:	a908                	fsd	fa0,16(a0)
 54e:	0002                	c.slli64	zero
 550:	0800                	addi	s0,sp,16
 552:	006a                	c.slli	zero,0x1a
 554:	0000                	unimp
 556:	d91d                	beqz	a0,48c <REGBYTES+0x484>
 558:	0000                	unimp
 55a:	0000                	unimp
 55c:	0000                	unimp
 55e:	9400                	.insn	2, 0x9400
 560:	0005                	c.nop	1
 562:	0080                	addi	s0,sp,64
 564:	0000                	unimp
 566:	bc00                	fsd	fs0,56(s0)
 568:	0001                	nop
 56a:	0000                	unimp
 56c:	0000                	unimp
 56e:	dd00                	sw	s0,56(a0)
 570:	0008                	.insn	2, 0x0008
 572:	0300                	addi	s0,sp,384
 574:	0801                	addi	a6,a6,0
 576:	0105                	addi	sp,sp,1
 578:	0000                	unimp
 57a:	43070203          	lb	tp,1072(a4)
 57e:	0001                	nop
 580:	0300                	addi	s0,sp,384
 582:	0704                	addi	s1,sp,896
 584:	00f8                	addi	a4,sp,76
 586:	0000                	unimp
 588:	f3070803          	lb	a6,-208(a4)
 58c:	0000                	unimp
 58e:	0300                	addi	s0,sp,384
 590:	0601                	addi	a2,a2,0
 592:	00000107          	.insn	4, 0x0107
 596:	67050203          	lb	tp,1648(a0)
 59a:	0001                	nop
 59c:	0900                	addi	s0,sp,144
 59e:	0504                	addi	s1,sp,640
 5a0:	6e69                	lui	t3,0x1a
 5a2:	0074                	addi	a3,sp,12
 5a4:	27050803          	lb	a6,624(a0)
 5a8:	0001                	nop
 5aa:	0600                	addi	s0,sp,768
 5ac:	0130                	addi	a2,sp,136
 5ae:	0000                	unimp
 5b0:	431b2d03          	lw	s10,1073(s6)
 5b4:	0000                	unimp
 5b6:	0300                	addi	s0,sp,384
 5b8:	0801                	addi	a6,a6,0
 5ba:	010e                	slli	sp,sp,0x3
 5bc:	0000                	unimp
 5be:	3206                	fld	ft4,96(sp)
 5c0:	0001                	nop
 5c2:	0400                	addi	s0,sp,512
 5c4:	0066141b          	slliw	s0,a2,0x6
 5c8:	0000                	unimp
 5ca:	0002e207          	.insn	4, 0x0002e207
 5ce:	0500                	addi	s0,sp,640
 5d0:	00930603          	lb	a2,9(t1) # ffffffffffffa009 <end+0xffffffff7fff0ff9>
 5d4:	0000                	unimp
 5d6:	0005                	c.nop	1
 5d8:	00032507          	flw	fa0,0(t1)
 5dc:	0200                	addi	s0,sp,256
 5de:	00a10d07          	.insn	4, 0x00a10d07
 5e2:	0000                	unimp
 5e4:	0005                	c.nop	1
 5e6:	c90a                	sw	sp,144(sp)
 5e8:	0002                	c.slli64	zero
 5ea:	0600                	addi	s0,sp,768
 5ec:	00580503          	lb	a0,5(a6)
 5f0:	0000                	unimp
 5f2:	000000b3          	add	ra,zero,zero
 5f6:	0005                	c.nop	1
 5f8:	0003300b          	.insn	4, 0x0003300b
 5fc:	0200                	addi	s0,sp,256
 5fe:	0609                	addi	a2,a2,2
 600:	06b0                	addi	a2,sp,840
 602:	8000                	.insn	2, 0x8000
 604:	0000                	unimp
 606:	0000                	unimp
 608:	00a0                	addi	s0,sp,72
 60a:	0000                	unimp
 60c:	0000                	unimp
 60e:	0000                	unimp
 610:	9c01                	subw	s0,s0,s0
 612:	00ed                	addi	ra,ra,27
 614:	0000                	unimp
 616:	7804                	ld	s1,48(s0)
 618:	0200                	addi	s0,sp,256
 61a:	0043130b          	.insn	4, 0x0043130b
 61e:	0000                	unimp
 620:	9102                	jalr	sp
 622:	0468                	addi	a0,sp,524
 624:	6469                	lui	s0,0x1a
 626:	0200                	addi	s0,sp,256
 628:	00580923          	sb	t0,18(a6)
 62c:	0000                	unimp
 62e:	9102                	jalr	sp
 630:	0064                	addi	s1,sp,12
 632:	4001                	c.li	zero,0
 634:	f1000003          	lb	zero,-240(zero) # ffffffffffffff10 <end+0xffffffff7fff6f00>
 638:	0698                	addi	a4,sp,832
 63a:	8000                	.insn	2, 0x8000
 63c:	0000                	unimp
 63e:	0000                	unimp
 640:	0018                	.insn	2, 0x0018
 642:	0000                	unimp
 644:	0000                	unimp
 646:	0000                	unimp
 648:	9c01                	subw	s0,s0,s0
 64a:	0116                	slli	sp,sp,0x5
 64c:	0000                	unimp
 64e:	7802                	ld	a6,32(sp)
 650:	f100                	sd	s0,32(a0)
 652:	7922                	ld	s2,40(sp)
 654:	0000                	unimp
 656:	0200                	addi	s0,sp,256
 658:	6891                	lui	a7,0x4
 65a:	0100                	addi	s0,sp,128
 65c:	02ed                	addi	t0,t0,27
 65e:	0000                	unimp
 660:	7ea1                	lui	t4,0xfffe8
 662:	0006                	c.slli	zero,0x1
 664:	0080                	addi	s0,sp,64
 666:	0000                	unimp
 668:	1a00                	addi	s0,sp,304
 66a:	0000                	unimp
 66c:	0000                	unimp
 66e:	0000                	unimp
 670:	0100                	addi	s0,sp,128
 672:	3f9c                	fld	fa5,56(a5)
 674:	0001                	nop
 676:	0200                	addi	s0,sp,256
 678:	0078                	addi	a4,sp,12
 67a:	24a1                	addiw	s1,s1,8 # 4008 <STACK_SIZE+0x3088>
 67c:	0079                	c.nop	30
 67e:	0000                	unimp
 680:	9102                	jalr	sp
 682:	0068                	addi	a0,sp,12
 684:	fe01                	bnez	a2,59c <REGBYTES+0x594>
 686:	0002                	c.slli64	zero
 688:	9600                	.insn	2, 0x9600
 68a:	0664                	addi	s1,sp,780
 68c:	8000                	.insn	2, 0x8000
 68e:	0000                	unimp
 690:	0000                	unimp
 692:	001a                	c.slli	zero,0x6
 694:	0000                	unimp
 696:	0000                	unimp
 698:	0000                	unimp
 69a:	9c01                	subw	s0,s0,s0
 69c:	0168                	addi	a0,sp,140
 69e:	0000                	unimp
 6a0:	7802                	ld	a6,32(sp)
 6a2:	9600                	.insn	2, 0x9600
 6a4:	7925                	lui	s2,0xfffe9
 6a6:	0000                	unimp
 6a8:	0200                	addi	s0,sp,256
 6aa:	6891                	lui	a7,0x4
 6ac:	0100                	addi	s0,sp,128
 6ae:	0306                	slli	t1,t1,0x1
 6b0:	0000                	unimp
 6b2:	4a85                	li	s5,1
 6b4:	0006                	c.slli	zero,0x1
 6b6:	0080                	addi	s0,sp,64
 6b8:	0000                	unimp
 6ba:	1a00                	addi	s0,sp,304
 6bc:	0000                	unimp
 6be:	0000                	unimp
 6c0:	0000                	unimp
 6c2:	0100                	addi	s0,sp,128
 6c4:	919c                	.insn	2, 0x919c
 6c6:	0001                	nop
 6c8:	0200                	addi	s0,sp,256
 6ca:	0078                	addi	a4,sp,12
 6cc:	2785                	addiw	a5,a5,1 # 2004001 <STACK_SIZE+0x2003081>
 6ce:	0079                	c.nop	30
 6d0:	0000                	unimp
 6d2:	9102                	jalr	sp
 6d4:	0068                	addi	a0,sp,12
 6d6:	f401                	bnez	s0,5de <REGBYTES+0x5d6>
 6d8:	0002                	c.slli64	zero
 6da:	7a00                	ld	s0,48(a2)
 6dc:	0630                	addi	a2,sp,776
 6de:	8000                	.insn	2, 0x8000
 6e0:	0000                	unimp
 6e2:	0000                	unimp
 6e4:	001a                	c.slli	zero,0x6
 6e6:	0000                	unimp
 6e8:	0000                	unimp
 6ea:	0000                	unimp
 6ec:	9c01                	subw	s0,s0,s0
 6ee:	01ba                	slli	gp,gp,0xe
 6f0:	0000                	unimp
 6f2:	7802                	ld	a6,32(sp)
 6f4:	7a00                	ld	s0,48(a2)
 6f6:	00007927          	.insn	4, 0x7927
 6fa:	0200                	addi	s0,sp,256
 6fc:	6891                	lui	a7,0x4
 6fe:	0100                	addi	s0,sp,128
 700:	031a                	slli	t1,t1,0x6
 702:	0000                	unimp
 704:	1646                	slli	a2,a2,0x31
 706:	0006                	c.slli	zero,0x1
 708:	0080                	addi	s0,sp,64
 70a:	0000                	unimp
 70c:	1a00                	addi	s0,sp,304
 70e:	0000                	unimp
 710:	0000                	unimp
 712:	0000                	unimp
 714:	0100                	addi	s0,sp,128
 716:	e39c                	sd	a5,0(a5)
 718:	0001                	nop
 71a:	0200                	addi	s0,sp,256
 71c:	0078                	addi	a4,sp,12
 71e:	2846                	fld	fa6,80(sp)
 720:	0079                	c.nop	30
 722:	0000                	unimp
 724:	9102                	jalr	sp
 726:	0068                	addi	a0,sp,12
 728:	ce01                	beqz	a2,740 <REGBYTES+0x738>
 72a:	0002                	c.slli64	zero
 72c:	4200                	lw	s0,0(a2)
 72e:	05fc                	addi	a5,sp,716
 730:	8000                	.insn	2, 0x8000
 732:	0000                	unimp
 734:	0000                	unimp
 736:	001a                	c.slli	zero,0x6
 738:	0000                	unimp
 73a:	0000                	unimp
 73c:	0000                	unimp
 73e:	9c01                	subw	s0,s0,s0
 740:	020c                	addi	a1,sp,256
 742:	0000                	unimp
 744:	7802                	ld	a6,32(sp)
 746:	4200                	lw	s0,0(a2)
 748:	00007927          	.insn	4, 0x7927
 74c:	0200                	addi	s0,sp,256
 74e:	6891                	lui	a7,0x4
 750:	0100                	addi	s0,sp,128
 752:	0345                	addi	t1,t1,17
 754:	0000                	unimp
 756:	e221                	bnez	a2,796 <REGBYTES+0x78e>
 758:	0005                	c.nop	1
 75a:	0080                	addi	s0,sp,64
 75c:	0000                	unimp
 75e:	1a00                	addi	s0,sp,304
 760:	0000                	unimp
 762:	0000                	unimp
 764:	0000                	unimp
 766:	0100                	addi	s0,sp,128
 768:	359c                	fld	fa5,40(a1)
 76a:	0002                	c.slli64	zero
 76c:	0200                	addi	s0,sp,256
 76e:	0078                	addi	a4,sp,12
 770:	2421                	addiw	s0,s0,8 # 1a008 <STACK_SIZE+0x19088>
 772:	0079                	c.nop	30
 774:	0000                	unimp
 776:	9102                	jalr	sp
 778:	0068                	addi	a0,sp,12
 77a:	3601                	addiw	a2,a2,-32
 77c:	1a000003          	lb	zero,416(zero) # 1a0 <REGBYTES+0x198>
 780:	05c8                	addi	a0,sp,708
 782:	8000                	.insn	2, 0x8000
 784:	0000                	unimp
 786:	0000                	unimp
 788:	001a                	c.slli	zero,0x6
 78a:	0000                	unimp
 78c:	0000                	unimp
 78e:	0000                	unimp
 790:	9c01                	subw	s0,s0,s0
 792:	025e                	slli	tp,tp,0x17
 794:	0000                	unimp
 796:	7802                	ld	a6,32(sp)
 798:	1a00                	addi	s0,sp,304
 79a:	00007927          	.insn	4, 0x7927
 79e:	0200                	addi	s0,sp,256
 7a0:	6891                	lui	a7,0x4
 7a2:	0c00                	addi	s0,sp,528
 7a4:	02d8                	addi	a4,sp,324
 7a6:	0000                	unimp
 7a8:	1401                	addi	s0,s0,-32
 7aa:	7918                	ld	a4,48(a0)
 7ac:	0000                	unimp
 7ae:	ae00                	fsd	fs0,24(a2)
 7b0:	0005                	c.nop	1
 7b2:	0080                	addi	s0,sp,64
 7b4:	0000                	unimp
 7b6:	1a00                	addi	s0,sp,304
 7b8:	0000                	unimp
 7ba:	0000                	unimp
 7bc:	0000                	unimp
 7be:	0100                	addi	s0,sp,128
 7c0:	8e9c                	.insn	2, 0x8e9c
 7c2:	0002                	c.slli64	zero
 7c4:	0400                	addi	s0,sp,512
 7c6:	0078                	addi	a4,sp,12
 7c8:	1501                	addi	a0,a0,-32
 7ca:	790e                	ld	s2,224(sp)
 7cc:	0000                	unimp
 7ce:	0200                	addi	s0,sp,256
 7d0:	6891                	lui	a7,0x4
 7d2:	0d00                	addi	s0,sp,656
 7d4:	0310                	addi	a2,sp,384
 7d6:	0000                	unimp
 7d8:	0e01                	addi	t3,t3,0 # 1a000 <STACK_SIZE+0x19080>
 7da:	7918                	ld	a4,48(a0)
 7dc:	0000                	unimp
 7de:	9400                	.insn	2, 0x9400
 7e0:	0005                	c.nop	1
 7e2:	0080                	addi	s0,sp,64
 7e4:	0000                	unimp
 7e6:	1a00                	addi	s0,sp,304
 7e8:	0000                	unimp
 7ea:	0000                	unimp
 7ec:	0000                	unimp
 7ee:	0100                	addi	s0,sp,128
 7f0:	049c                	addi	a5,sp,576
 7f2:	0078                	addi	a4,sp,12
 7f4:	0f01                	addi	t5,t5,0
 7f6:	790e                	ld	s2,224(sp)
 7f8:	0000                	unimp
 7fa:	0200                	addi	s0,sp,256
 7fc:	6891                	lui	a7,0x4
 7fe:	0000                	unimp
 800:	0106                	slli	sp,sp,0x1
 802:	0000                	unimp
 804:	0005                	c.nop	1
 806:	0801                	addi	a6,a6,0
 808:	0396                	slli	t2,t2,0x5
 80a:	0000                	unimp
 80c:	6a04                	ld	s1,16(a2)
 80e:	0000                	unimp
 810:	1d00                	addi	s0,sp,688
 812:	00fc                	addi	a5,sp,76
 814:	0000                	unimp
 816:	0000                	unimp
 818:	0000                	unimp
 81a:	0750                	addi	a2,sp,900
 81c:	8000                	.insn	2, 0x8000
 81e:	0000                	unimp
 820:	0000                	unimp
 822:	0078                	addi	a4,sp,12
 824:	0000                	unimp
 826:	0000                	unimp
 828:	0000                	unimp
 82a:	0ae2                	slli	s5,s5,0x18
 82c:	0000                	unimp
 82e:	0101                	addi	sp,sp,0
 830:	0508                	addi	a0,sp,640
 832:	0001                	nop
 834:	0100                	addi	s0,sp,128
 836:	0702                	c.slli64	a4
 838:	00000143          	fmadd.s	ft2,ft0,ft0,ft0,rne
 83c:	0401                	addi	s0,s0,0
 83e:	0000f807          	.insn	4, 0xf807
 842:	0100                	addi	s0,sp,128
 844:	0708                	addi	a0,sp,896
 846:	000000f3          	.insn	4, 0x00f3
 84a:	0101                	addi	sp,sp,0
 84c:	0706                	slli	a4,a4,0x1
 84e:	0001                	nop
 850:	0100                	addi	s0,sp,128
 852:	0502                	c.slli64	a0
 854:	00000167          	jalr	sp,zero # 0 <REGBYTES-0x8>
 858:	0405                	addi	s0,s0,1
 85a:	6905                	lui	s2,0x1
 85c:	746e                	ld	s0,248(sp)
 85e:	0100                	addi	s0,sp,128
 860:	0508                	addi	a0,sp,640
 862:	00000127          	.insn	4, 0x0127
 866:	3002                	fld	ft0,32(sp)
 868:	0001                	nop
 86a:	0300                	addi	s0,sp,384
 86c:	1b2d                	addi	s6,s6,-21
 86e:	00000043          	fmadd.s	ft0,ft0,ft0,ft0,rne
 872:	0101                	addi	sp,sp,0
 874:	0e08                	addi	a0,sp,784
 876:	0001                	nop
 878:	0200                	addi	s0,sp,256
 87a:	0132                	slli	sp,sp,0xc
 87c:	0000                	unimp
 87e:	1b04                	addi	s1,sp,432
 880:	6614                	ld	a3,8(a2)
 882:	0000                	unimp
 884:	0600                	addi	s0,sp,768
 886:	02e2                	slli	t0,t0,0x18
 888:	0000                	unimp
 88a:	0702                	c.slli64	a4
 88c:	8406                	mv	s0,ra
 88e:	00800007          	.insn	4, 0x00800007
 892:	0000                	unimp
 894:	4400                	lw	s0,8(s0)
 896:	0000                	unimp
 898:	0000                	unimp
 89a:	0000                	unimp
 89c:	0100                	addi	s0,sp,128
 89e:	b29c                	fsd	fa5,32(a3)
 8a0:	0000                	unimp
 8a2:	0300                	addi	s0,sp,384
 8a4:	696d                	lui	s2,0x1b
 8a6:	0065                	c.nop	25
 8a8:	0902                	c.slli64	s2
 8aa:	0079                	c.nop	30
 8ac:	0000                	unimp
 8ae:	9102                	jalr	sp
 8b0:	0068                	addi	a0,sp,12
 8b2:	00035207          	.insn	4, 0x00035207
 8b6:	0100                	addi	s0,sp,128
 8b8:	1462                	slli	s0,s0,0x38
 8ba:	076a                	slli	a4,a4,0x1a
 8bc:	8000                	.insn	2, 0x8000
 8be:	0000                	unimp
 8c0:	0000                	unimp
 8c2:	001a                	c.slli	zero,0x6
 8c4:	0000                	unimp
 8c6:	0000                	unimp
 8c8:	0000                	unimp
 8ca:	9c01                	subw	s0,s0,s0
 8cc:	00de                	slli	ra,ra,0x17
 8ce:	0000                	unimp
 8d0:	7808                	ld	a0,48(s0)
 8d2:	0100                	addi	s0,sp,128
 8d4:	2362                	fld	ft6,24(sp)
 8d6:	0079                	c.nop	30
 8d8:	0000                	unimp
 8da:	9102                	jalr	sp
 8dc:	0068                	addi	a0,sp,12
 8de:	4c09                	li	s8,2
 8e0:	01000003          	lb	zero,16(zero) # 10 <REGBYTES+0x8>
 8e4:	185c                	addi	a5,sp,52
 8e6:	0079                	c.nop	30
 8e8:	0000                	unimp
 8ea:	0750                	addi	a2,sp,900
 8ec:	8000                	.insn	2, 0x8000
 8ee:	0000                	unimp
 8f0:	0000                	unimp
 8f2:	001a                	c.slli	zero,0x6
 8f4:	0000                	unimp
 8f6:	0000                	unimp
 8f8:	0000                	unimp
 8fa:	9c01                	subw	s0,s0,s0
 8fc:	01007803          	.insn	4, 0x01007803
 900:	795d                	lui	s2,0xffff7
 902:	0000                	unimp
 904:	0200                	addi	s0,sp,256
 906:	6891                	lui	a7,0x4
	...

Disassembly of section .debug_abbrev:

0000000000000000 <.debug_abbrev>:
   0:	1101                	addi	sp,sp,-32
   2:	1000                	addi	s0,sp,32
   4:	12011117          	auipc	sp,0x12011
   8:	1b0e030f          	.insn	4, 0x1b0e030f
   c:	250e                	fld	fa0,192(sp)
   e:	130e                	slli	t1,t1,0x23
  10:	0005                	c.nop	1
  12:	0000                	unimp
  14:	1101                	addi	sp,sp,-32 # 12010fe4 <STACK_SIZE+0x12010064>
  16:	1000                	addi	s0,sp,32
  18:	12011117          	auipc	sp,0x12011
  1c:	1b0e030f          	.insn	4, 0x1b0e030f
  20:	250e                	fld	fa0,192(sp)
  22:	130e                	slli	t1,t1,0x23
  24:	0005                	c.nop	1
  26:	0000                	unimp
  28:	2401                	sext.w	s0,s0
  2a:	0b00                	addi	s0,sp,400
  2c:	030b3e0b          	.insn	4, 0x030b3e0b
  30:	000e                	c.slli	zero,0x3
  32:	0200                	addi	s0,sp,256
  34:	0016                	c.slli	zero,0x5
  36:	0b3a0e03          	lb	t3,179(s4) # 20b3 <STACK_SIZE+0x1133>
  3a:	0b390b3b          	.insn	4, 0x0b390b3b
  3e:	1349                	addi	t1,t1,-14
  40:	0000                	unimp
  42:	3f012e03          	lw	t3,1008(sp) # 12011408 <STACK_SIZE+0x12010488>
  46:	0319                	addi	t1,t1,6
  48:	3a0e                	fld	fs4,224(sp)
  4a:	0421                	addi	s0,s0,8
  4c:	21390b3b          	.insn	4, 0x21390b3b
  50:	2706                	fld	fa4,64(sp)
  52:	3c19                	addiw	s8,s8,-26 # 18fe6 <STACK_SIZE+0x18066>
  54:	0119                	addi	sp,sp,6
  56:	04000013          	li	zero,64
  5a:	0005                	c.nop	1
  5c:	1349                	addi	t1,t1,-14
  5e:	0000                	unimp
  60:	3405                	addiw	s0,s0,-31
  62:	0300                	addi	s0,sp,384
  64:	3a0e                	fld	fs4,224(sp)
  66:	0121                	addi	sp,sp,8
  68:	3932213b          	.insn	4, 0x3932213b
  6c:	0213490b          	.insn	4, 0x0213490b
  70:	0018                	.insn	2, 0x0018
  72:	0600                	addi	s0,sp,768
  74:	0005                	c.nop	1
  76:	213a0e03          	lb	t3,531(s4)
  7a:	3b01                	addiw	s6,s6,-32
  7c:	2021390b          	.insn	4, 0x2021390b
  80:	1349                	addi	t1,t1,-14
  82:	1802                	slli	a6,a6,0x20
  84:	0000                	unimp
  86:	03003407          	fld	fs0,48(zero) # 30 <REGBYTES+0x28>
  8a:	3a08                	fld	fa0,48(a2)
  8c:	0121                	addi	sp,sp,8
  8e:	0b390b3b          	.insn	4, 0x0b390b3b
  92:	1349                	addi	t1,t1,-14
  94:	1802                	slli	a6,a6,0x20
  96:	0000                	unimp
  98:	1108                	addi	a0,sp,160
  9a:	2501                	sext.w	a0,a0
  9c:	130e                	slli	t1,t1,0x23
  9e:	1b1f030b          	.insn	4, 0x1b1f030b
  a2:	111f 1201 1007      	.insn	6, 0x10071201111f
  a8:	09000017          	auipc	zero,0x9000
  ac:	0024                	addi	s1,sp,8
  ae:	0b3e0b0b          	.insn	4, 0x0b3e0b0b
  b2:	00000803          	lb	a6,0(zero) # 0 <REGBYTES-0x8>
  b6:	260a                	fld	fa2,128(sp)
  b8:	4900                	lw	s0,16(a0)
  ba:	0b000013          	li	zero,176
  be:	0034                	addi	a3,sp,8
  c0:	0b3a0e03          	lb	t3,179(s4)
  c4:	0b390b3b          	.insn	4, 0x0b390b3b
  c8:	1349                	addi	t1,t1,-14
  ca:	1802193f 0f0c0000 	.insn	8, 0x0f0c00001802193f
  d2:	0b00                	addi	s0,sp,400
  d4:	0013490b          	.insn	4, 0x0013490b
  d8:	0d00                	addi	s0,sp,656
  da:	012e                	slli	sp,sp,0xb
  dc:	0e03193f 0b3b0b3a 	.insn	8, 0x0b3b0b3a0e03193f
  e4:	0b39                	addi	s6,s6,14
  e6:	0111                	addi	sp,sp,4
  e8:	0712                	slli	a4,a4,0x4
  ea:	1840                	addi	s0,sp,52
  ec:	197c                	addi	a5,sp,188
  ee:	1301                	addi	t1,t1,-32
  f0:	0000                	unimp
  f2:	2e0e                	fld	ft8,192(sp)
  f4:	3f01                	addiw	t5,t5,-32
  f6:	0319                	addi	t1,t1,6
  f8:	3a0e                	fld	fs4,224(sp)
  fa:	390b3b0b          	.insn	4, 0x390b3b0b
  fe:	1119270b          	.insn	4, 0x1119270b
 102:	1201                	addi	tp,tp,-32 # ffffffffffffffe0 <end+0xffffffff7fff6fd0>
 104:	7c184007          	.insn	4, 0x7c184007
 108:	0119                	addi	sp,sp,6
 10a:	0f000013          	li	zero,240
 10e:	012e                	slli	sp,sp,0xb
 110:	0e03193f 0b3b0b3a 	.insn	8, 0x0b3b0b3a0e03193f
 118:	0b39                	addi	s6,s6,14
 11a:	01111927          	.insn	4, 0x01111927
 11e:	0712                	slli	a4,a4,0x4
 120:	1840                	addi	s0,sp,52
 122:	197c                	addi	a5,sp,188
 124:	0000                	unimp
 126:	0b10                	addi	a2,sp,400
 128:	1101                	addi	sp,sp,-32
 12a:	1201                	addi	tp,tp,-32 # ffffffffffffffe0 <end+0xffffffff7fff6fd0>
 12c:	00000007          	.insn	4, 0x0007
 130:	2801                	sext.w	a6,a6
 132:	0300                	addi	s0,sp,384
 134:	1c0e                	slli	s8,s8,0x23
 136:	0200000b          	.insn	4, 0x0200000b
 13a:	0024                	addi	s1,sp,8
 13c:	0b3e0b0b          	.insn	4, 0x0b3e0b0b
 140:	00000e03          	lb	t3,0(zero) # 0 <REGBYTES-0x8>
 144:	03000503          	lb	a0,48(zero) # 30 <REGBYTES+0x28>
 148:	3a08                	fld	fa0,48(a2)
 14a:	0121                	addi	sp,sp,8
 14c:	0b390b3b          	.insn	4, 0x0b390b3b
 150:	1349                	addi	t1,t1,-14
 152:	1802                	slli	a6,a6,0x20
 154:	0000                	unimp
 156:	2e04                	fld	fs1,24(a2)
 158:	3f01                	addiw	t5,t5,-32
 15a:	0319                	addi	t1,t1,6
 15c:	3a0e                	fld	fs4,224(sp)
 15e:	0121                	addi	sp,sp,8
 160:	21390b3b          	.insn	4, 0x21390b3b
 164:	2706                	fld	fa4,64(sp)
 166:	1119                	addi	sp,sp,-26
 168:	1201                	addi	tp,tp,-32 # ffffffffffffffe0 <end+0xffffffff7fff6fd0>
 16a:	7c184007          	.insn	4, 0x7c184007
 16e:	0119                	addi	sp,sp,6
 170:	05000013          	li	zero,80
 174:	0016                	c.slli	zero,0x5
 176:	0b3a0e03          	lb	t3,179(s4)
 17a:	0b390b3b          	.insn	4, 0x0b390b3b
 17e:	1349                	addi	t1,t1,-14
 180:	0000                	unimp
 182:	3406                	fld	fs0,96(sp)
 184:	0300                	addi	s0,sp,384
 186:	3a0e                	fld	fs4,224(sp)
 188:	0121                	addi	sp,sp,8
 18a:	0b390b3b          	.insn	4, 0x0b390b3b
 18e:	1349                	addi	t1,t1,-14
 190:	1802                	slli	a6,a6,0x20
 192:	0000                	unimp
 194:	0b000f07          	.insn	4, 0x0b000f07
 198:	0821                	addi	a6,a6,8
 19a:	1349                	addi	t1,t1,-14
 19c:	0000                	unimp
 19e:	3408                	fld	fa0,40(s0)
 1a0:	0300                	addi	s0,sp,384
 1a2:	3a08                	fld	fa0,48(a2)
 1a4:	0121                	addi	sp,sp,8
 1a6:	0b390b3b          	.insn	4, 0x0b390b3b
 1aa:	1349                	addi	t1,t1,-14
 1ac:	1802                	slli	a6,a6,0x20
 1ae:	0000                	unimp
 1b0:	1109                	addi	sp,sp,-30
 1b2:	2501                	sext.w	a0,a0
 1b4:	130e                	slli	t1,t1,0x23
 1b6:	1b1f030b          	.insn	4, 0x1b1f030b
 1ba:	111f 1201 1007      	.insn	6, 0x10071201111f
 1c0:	0a000017          	auipc	zero,0xa000
 1c4:	0024                	addi	s1,sp,8
 1c6:	0b3e0b0b          	.insn	4, 0x0b3e0b0b
 1ca:	00000803          	lb	a6,0(zero) # 0 <REGBYTES-0x8>
 1ce:	4900260b          	.insn	4, 0x4900260b
 1d2:	0c000013          	li	zero,192
 1d6:	0035                	c.nop	13
 1d8:	1349                	addi	t1,t1,-14
 1da:	0000                	unimp
 1dc:	040d                	addi	s0,s0,3
 1de:	3e01                	addiw	t3,t3,-32
 1e0:	490b0b0b          	.insn	4, 0x490b0b0b
 1e4:	3b0b3a13          	sltiu	s4,s6,944
 1e8:	010b390b          	.insn	4, 0x010b390b
 1ec:	0e000013          	li	zero,224
 1f0:	012e                	slli	sp,sp,0xb
 1f2:	0b3a0e03          	lb	t3,179(s4)
 1f6:	0b390b3b          	.insn	4, 0x0b390b3b
 1fa:	13491927          	.insn	4, 0x13491927
 1fe:	0111                	addi	sp,sp,4
 200:	0712                	slli	a4,a4,0x4
 202:	1840                	addi	s0,sp,52
 204:	197a                	slli	s2,s2,0x3e
 206:	1301                	addi	t1,t1,-32
 208:	0000                	unimp
 20a:	3f012e0f          	.insn	4, 0x3f012e0f
 20e:	0319                	addi	t1,t1,6
 210:	3a0e                	fld	fs4,224(sp)
 212:	390b3b0b          	.insn	4, 0x390b3b0b
 216:	1201110b          	.insn	4, 0x1201110b
 21a:	7a184007          	.insn	4, 0x7a184007
 21e:	0019                	c.nop	6
 220:	0000                	unimp
 222:	2401                	sext.w	s0,s0
 224:	0b00                	addi	s0,sp,400
 226:	030b3e0b          	.insn	4, 0x030b3e0b
 22a:	000e                	c.slli	zero,0x3
 22c:	0200                	addi	s0,sp,256
 22e:	0111                	addi	sp,sp,4
 230:	0e25                	addi	t3,t3,9
 232:	1f030b13          	addi	s6,t1,496
 236:	01111f1b          	slliw	t5,sp,0x11
 23a:	0712                	slli	a4,a4,0x4
 23c:	1710                	addi	a2,sp,928
 23e:	0000                	unimp
 240:	0b002403          	lw	s0,176(zero) # b0 <REGBYTES+0xa8>
 244:	030b3e0b          	.insn	4, 0x030b3e0b
 248:	0008                	.insn	2, 0x0008
 24a:	0400                	addi	s0,sp,512
 24c:	0026                	c.slli	zero,0x9
 24e:	1349                	addi	t1,t1,-14
 250:	0000                	unimp
 252:	2e05                	addiw	t3,t3,1
 254:	3f01                	addiw	t5,t5,-32
 256:	0319                	addi	t1,t1,6
 258:	3a0e                	fld	fs4,224(sp)
 25a:	390b3b0b          	.insn	4, 0x390b3b0b
 25e:	3c19270b          	.insn	4, 0x3c19270b
 262:	0119                	addi	sp,sp,6
 264:	06000013          	li	zero,96
 268:	0005                	c.nop	1
 26a:	1349                	addi	t1,t1,-14
 26c:	0000                	unimp
 26e:	0b000f07          	.insn	4, 0x0b000f07
 272:	0013490b          	.insn	4, 0x0013490b
 276:	0800                	addi	s0,sp,16
 278:	012e                	slli	sp,sp,0xb
 27a:	0e03193f 0b3b0b3a 	.insn	8, 0x0b3b0b3a0e03193f
 282:	0b39                	addi	s6,s6,14
 284:	193c                	addi	a5,sp,184
 286:	1301                	addi	t1,t1,-32
 288:	0000                	unimp
 28a:	1809                	addi	a6,a6,-30
 28c:	0000                	unimp
 28e:	0a00                	addi	s0,sp,272
 290:	002e                	c.slli	zero,0xb
 292:	0e03193f 0b3b0b3a 	.insn	8, 0x0b3b0b3a0e03193f
 29a:	0b39                	addi	s6,s6,14
 29c:	1349                	addi	t1,t1,-14
 29e:	0111                	addi	sp,sp,4
 2a0:	0712                	slli	a4,a4,0x4
 2a2:	1840                	addi	s0,sp,52
 2a4:	197c                	addi	a5,sp,188
 2a6:	0000                	unimp
 2a8:	0100                	addi	s0,sp,128
 2aa:	012e                	slli	sp,sp,0xb
 2ac:	213a0e03          	lb	t3,531(s4)
 2b0:	3b01                	addiw	s6,s6,-32
 2b2:	1421390b          	.insn	4, 0x1421390b
 2b6:	01111927          	.insn	4, 0x01111927
 2ba:	0712                	slli	a4,a4,0x4
 2bc:	1840                	addi	s0,sp,52
 2be:	197a                	slli	s2,s2,0x3e
 2c0:	1301                	addi	t1,t1,-32
 2c2:	0000                	unimp
 2c4:	0502                	c.slli64	a0
 2c6:	0300                	addi	s0,sp,384
 2c8:	3a08                	fld	fa0,48(a2)
 2ca:	0121                	addi	sp,sp,8
 2cc:	0b390b3b          	.insn	4, 0x0b390b3b
 2d0:	1349                	addi	t1,t1,-14
 2d2:	1802                	slli	a6,a6,0x20
 2d4:	0000                	unimp
 2d6:	0b002403          	lw	s0,176(zero) # b0 <REGBYTES+0xa8>
 2da:	030b3e0b          	.insn	4, 0x030b3e0b
 2de:	000e                	c.slli	zero,0x3
 2e0:	0400                	addi	s0,sp,512
 2e2:	0034                	addi	a3,sp,8
 2e4:	0b3a0803          	lb	a6,179(s4)
 2e8:	0b390b3b          	.insn	4, 0x0b390b3b
 2ec:	1349                	addi	t1,t1,-14
 2ee:	1802                	slli	a6,a6,0x20
 2f0:	0000                	unimp
 2f2:	1805                	addi	a6,a6,-31
 2f4:	0000                	unimp
 2f6:	0600                	addi	s0,sp,768
 2f8:	0016                	c.slli	zero,0x5
 2fa:	0b3a0e03          	lb	t3,179(s4)
 2fe:	0b390b3b          	.insn	4, 0x0b390b3b
 302:	1349                	addi	t1,t1,-14
 304:	0000                	unimp
 306:	3f012e07          	flw	ft8,1008(sp)
 30a:	0319                	addi	t1,t1,6
 30c:	3a0e                	fld	fs4,224(sp)
 30e:	390b3b0b          	.insn	4, 0x390b3b0b
 312:	01193c0b          	.insn	4, 0x01193c0b
 316:	08000013          	li	zero,128
 31a:	0111                	addi	sp,sp,4
 31c:	0e25                	addi	t3,t3,9
 31e:	1f030b13          	addi	s6,t1,496
 322:	01111f1b          	slliw	t5,sp,0x11
 326:	0712                	slli	a4,a4,0x4
 328:	1710                	addi	a2,sp,928
 32a:	0000                	unimp
 32c:	2409                	addiw	s0,s0,2
 32e:	0b00                	addi	s0,sp,400
 330:	030b3e0b          	.insn	4, 0x030b3e0b
 334:	0008                	.insn	2, 0x0008
 336:	0a00                	addi	s0,sp,272
 338:	012e                	slli	sp,sp,0xb
 33a:	0e03193f 0b3b0b3a 	.insn	8, 0x0b3b0b3a0e03193f
 342:	0b39                	addi	s6,s6,14
 344:	1349                	addi	t1,t1,-14
 346:	193c                	addi	a5,sp,184
 348:	1301                	addi	t1,t1,-32
 34a:	0000                	unimp
 34c:	3f012e0b          	.insn	4, 0x3f012e0b
 350:	0319                	addi	t1,t1,6
 352:	3a0e                	fld	fs4,224(sp)
 354:	390b3b0b          	.insn	4, 0x390b3b0b
 358:	1201110b          	.insn	4, 0x1201110b
 35c:	7c184007          	.insn	4, 0x7c184007
 360:	0119                	addi	sp,sp,6
 362:	0c000013          	li	zero,192
 366:	012e                	slli	sp,sp,0xb
 368:	0b3a0e03          	lb	t3,179(s4)
 36c:	0b390b3b          	.insn	4, 0x0b390b3b
 370:	1349                	addi	t1,t1,-14
 372:	0111                	addi	sp,sp,4
 374:	0712                	slli	a4,a4,0x4
 376:	1840                	addi	s0,sp,52
 378:	197a                	slli	s2,s2,0x3e
 37a:	1301                	addi	t1,t1,-32
 37c:	0000                	unimp
 37e:	2e0d                	addiw	t3,t3,3
 380:	0301                	addi	t1,t1,0
 382:	3a0e                	fld	fs4,224(sp)
 384:	390b3b0b          	.insn	4, 0x390b3b0b
 388:	1113490b          	.insn	4, 0x1113490b
 38c:	1201                	addi	tp,tp,-32 # ffffffffffffffe0 <end+0xffffffff7fff6fd0>
 38e:	7a184007          	.insn	4, 0x7a184007
 392:	0019                	c.nop	6
 394:	0000                	unimp
 396:	2401                	sext.w	s0,s0
 398:	0b00                	addi	s0,sp,400
 39a:	030b3e0b          	.insn	4, 0x030b3e0b
 39e:	000e                	c.slli	zero,0x3
 3a0:	0200                	addi	s0,sp,256
 3a2:	0016                	c.slli	zero,0x5
 3a4:	0b3a0e03          	lb	t3,179(s4)
 3a8:	0b390b3b          	.insn	4, 0x0b390b3b
 3ac:	1349                	addi	t1,t1,-14
 3ae:	0000                	unimp
 3b0:	03003403          	ld	s0,48(zero) # 30 <REGBYTES+0x28>
 3b4:	3a08                	fld	fa0,48(a2)
 3b6:	390b3b0b          	.insn	4, 0x390b3b0b
 3ba:	0e21                	addi	t3,t3,8
 3bc:	1349                	addi	t1,t1,-14
 3be:	1802                	slli	a6,a6,0x20
 3c0:	0000                	unimp
 3c2:	1104                	addi	s1,sp,160
 3c4:	2501                	sext.w	a0,a0
 3c6:	130e                	slli	t1,t1,0x23
 3c8:	1b1f030b          	.insn	4, 0x1b1f030b
 3cc:	111f 1201 1007      	.insn	6, 0x10071201111f
 3d2:	05000017          	auipc	zero,0x5000
 3d6:	0024                	addi	s1,sp,8
 3d8:	0b3e0b0b          	.insn	4, 0x0b3e0b0b
 3dc:	00000803          	lb	a6,0(zero) # 0 <REGBYTES-0x8>
 3e0:	2e06                	fld	ft8,64(sp)
 3e2:	3f01                	addiw	t5,t5,-32
 3e4:	0319                	addi	t1,t1,6
 3e6:	3a0e                	fld	fs4,224(sp)
 3e8:	390b3b0b          	.insn	4, 0x390b3b0b
 3ec:	1201110b          	.insn	4, 0x1201110b
 3f0:	7c184007          	.insn	4, 0x7c184007
 3f4:	0119                	addi	sp,sp,6
 3f6:	07000013          	li	zero,112
 3fa:	012e                	slli	sp,sp,0xb
 3fc:	0b3a0e03          	lb	t3,179(s4)
 400:	0b390b3b          	.insn	4, 0x0b390b3b
 404:	01111927          	.insn	4, 0x01111927
 408:	0712                	slli	a4,a4,0x4
 40a:	1840                	addi	s0,sp,52
 40c:	197a                	slli	s2,s2,0x3e
 40e:	1301                	addi	t1,t1,-32
 410:	0000                	unimp
 412:	0508                	addi	a0,sp,640
 414:	0300                	addi	s0,sp,384
 416:	3a08                	fld	fa0,48(a2)
 418:	390b3b0b          	.insn	4, 0x390b3b0b
 41c:	0213490b          	.insn	4, 0x0213490b
 420:	0018                	.insn	2, 0x0018
 422:	0900                	addi	s0,sp,144
 424:	012e                	slli	sp,sp,0xb
 426:	0b3a0e03          	lb	t3,179(s4)
 42a:	0b390b3b          	.insn	4, 0x0b390b3b
 42e:	1349                	addi	t1,t1,-14
 430:	0111                	addi	sp,sp,4
 432:	0712                	slli	a4,a4,0x4
 434:	1840                	addi	s0,sp,52
 436:	197a                	slli	s2,s2,0x3e
 438:	0000                	unimp
	...

Disassembly of section .debug_aranges:

0000000000000000 <.debug_aranges>:
   0:	002c                	addi	a1,sp,8
   2:	0000                	unimp
   4:	0002                	c.slli64	zero
   6:	0000                	unimp
   8:	0000                	unimp
   a:	0008                	.insn	2, 0x0008
   c:	0000                	unimp
   e:	0000                	unimp
  10:	0030                	addi	a2,sp,8
  12:	8000                	.insn	2, 0x8000
  14:	0000                	unimp
  16:	0000                	unimp
  18:	0148                	addi	a0,sp,132
	...
  2e:	0000                	unimp
  30:	002c                	addi	a1,sp,8
  32:	0000                	unimp
  34:	0002                	c.slli64	zero
  36:	0029                	c.nop	10
  38:	0000                	unimp
  3a:	0008                	.insn	2, 0x0008
  3c:	0000                	unimp
  3e:	0000                	unimp
  40:	0000                	unimp
  42:	8000                	.insn	2, 0x8000
  44:	0000                	unimp
  46:	0000                	unimp
  48:	0026                	c.slli	zero,0x9
	...
  5e:	0000                	unimp
  60:	002c                	addi	a1,sp,8
  62:	0000                	unimp
  64:	0002                	c.slli64	zero
  66:	0051                	c.nop	20
  68:	0000                	unimp
  6a:	0008                	.insn	2, 0x0008
  6c:	0000                	unimp
  6e:	0000                	unimp
  70:	017a                	slli	sp,sp,0x1e
  72:	8000                	.insn	2, 0x8000
  74:	0000                	unimp
  76:	0000                	unimp
  78:	019e                	slli	gp,gp,0x7
	...
  8e:	0000                	unimp
  90:	002c                	addi	a1,sp,8
  92:	0000                	unimp
  94:	0002                	c.slli64	zero
  96:	01da                	slli	gp,gp,0x16
  98:	0000                	unimp
  9a:	0008                	.insn	2, 0x0008
  9c:	0000                	unimp
  9e:	0000                	unimp
  a0:	0318                	addi	a4,sp,384
  a2:	8000                	.insn	2, 0x8000
  a4:	0000                	unimp
  a6:	0000                	unimp
  a8:	0248                	addi	a0,sp,260
	...
  be:	0000                	unimp
  c0:	002c                	addi	a1,sp,8
  c2:	0000                	unimp
  c4:	0002                	c.slli64	zero
  c6:	048e                	slli	s1,s1,0x3
  c8:	0000                	unimp
  ca:	0008                	.insn	2, 0x0008
  cc:	0000                	unimp
  ce:	0000                	unimp
  d0:	0560                	addi	s0,sp,652
  d2:	8000                	.insn	2, 0x8000
  d4:	0000                	unimp
  d6:	0000                	unimp
  d8:	0034                	addi	a3,sp,8
	...
  ee:	0000                	unimp
  f0:	002c                	addi	a1,sp,8
  f2:	0000                	unimp
  f4:	0002                	c.slli64	zero
  f6:	0545                	addi	a0,a0,17
  f8:	0000                	unimp
  fa:	0008                	.insn	2, 0x0008
  fc:	0000                	unimp
  fe:	0000                	unimp
 100:	0594                	addi	a3,sp,704
 102:	8000                	.insn	2, 0x8000
 104:	0000                	unimp
 106:	0000                	unimp
 108:	01bc                	addi	a5,sp,200
	...
 11e:	0000                	unimp
 120:	002c                	addi	a1,sp,8
 122:	0000                	unimp
 124:	0002                	c.slli64	zero
 126:	0800                	addi	s0,sp,16
 128:	0000                	unimp
 12a:	0008                	.insn	2, 0x0008
 12c:	0000                	unimp
 12e:	0000                	unimp
 130:	0750                	addi	a2,sp,900
 132:	8000                	.insn	2, 0x8000
 134:	0000                	unimp
 136:	0000                	unimp
 138:	0078                	addi	a4,sp,12
	...

Disassembly of section .debug_str:

0000000000000000 <.debug_str>:
   0:	2f637273          	csrrci	tp,0x2f6,6
   4:	6e72656b          	.insn	4, 0x6e72656b
   8:	6c65                	lui	s8,0x19
   a:	6576                	ld	a0,344(sp)
   c:	00732e63          	.insn	4, 0x00732e63
  10:	6d6f682f          	.insn	4, 0x6d6f682f
  14:	2f65                	addiw	t5,t5,25
  16:	6e617567          	.insn	4, 0x6e617567
  1a:	64616467          	.insn	4, 0x64616467
  1e:	2f676e6f          	jal	t3,76314 <STACK_SIZE+0x75394>
  22:	6972                	ld	s2,280(sp)
  24:	2f766373          	csrrsi	t1,0x2f7,12
  28:	6966                	ld	s2,88(sp)
  2a:	6d72                	ld	s10,280(sp)
  2c:	7261                	lui	tp,0xffff8
  2e:	2f65                	addiw	t5,t5,25
  30:	356d6567          	.insn	4, 0x356d6567
  34:	722d                	lui	tp,0xfffeb
  36:	7369                	lui	t1,0xffffa
  38:	622d7663          	bgeu	s10,sp,664 <REGBYTES+0x65c>
  3c:	7261                	lui	tp,0xffff8
  3e:	2d65                	addiw	s10,s10,25 # 1a019 <STACK_SIZE+0x19099>
  40:	656d                	lui	a0,0x1b
  42:	6174                	ld	a3,192(a0)
  44:	2d6c                	fld	fa1,216(a0)
  46:	6e69                	lui	t3,0x1a
  48:	0074                	addi	a3,sp,12
  4a:	20554e47          	fmsub.s	ft8,fa0,ft5,ft4,rmm
  4e:	5341                	li	t1,-16
  50:	3220                	fld	fs0,96(a2)
  52:	342e                	fld	fs0,232(sp)
  54:	0032                	c.slli	zero,0xc
  56:	2f637273          	csrrci	tp,0x2f6,6
  5a:	72617473          	csrrci	s0,mhpmevent6h,2
  5e:	7574                	ld	a3,232(a0)
  60:	2e70                	fld	fa2,216(a2)
  62:	6f630073          	.insn	4, 0x6f630073
  66:	6e75                	lui	t3,0x1d
  68:	0074                	addi	a3,sp,12
  6a:	20554e47          	fmsub.s	ft8,fa0,ft5,ft4,rmm
  6e:	20373143          	fmadd.s	ft2,fa4,ft3,ft4,rup
  72:	3331                	addiw	t1,t1,-20 # ffffffffffff9fec <end+0xffffffff7fff0fdc>
  74:	322e                	fld	ft4,232(sp)
  76:	302e                	fld	ft0,232(sp)
  78:	2d20                	fld	fs0,88(a0)
  7a:	636d                	lui	t1,0x1b
  7c:	6f6d                	lui	t5,0x1b
  7e:	6564                	ld	s1,200(a0)
  80:	3d6c                	fld	fa1,248(a0)
  82:	656d                	lui	a0,0x1b
  84:	6164                	ld	s1,192(a0)
  86:	796e                	ld	s2,248(sp)
  88:	2d20                	fld	fs0,88(a0)
  8a:	746d                	lui	s0,0xffffb
  8c:	6e75                	lui	t3,0x1d
  8e:	3d65                	addiw	s10,s10,-7
  90:	6f72                	ld	t5,280(sp)
  92:	74656b63          	bltu	a0,t1,7e8 <REGBYTES+0x7e0>
  96:	2d20                	fld	fs0,88(a0)
  98:	616d                	addi	sp,sp,240
  9a:	6962                	ld	s2,24(sp)
  9c:	6c3d                	lui	s8,0xf
  9e:	3670                	fld	fa2,232(a2)
  a0:	6434                	ld	a3,72(s0)
  a2:	2d20                	fld	fs0,88(a0)
  a4:	696d                	lui	s2,0x1b
  a6:	732d6173          	csrrsi	sp,mhpmevent18h,26
  aa:	6570                	ld	a2,200(a0)
  ac:	30323d63          	.insn	4, 0x30323d63
  b0:	3931                	addiw	s2,s2,-20 # 1afec <STACK_SIZE+0x1a06c>
  b2:	3231                	addiw	tp,tp,-20 # ffffffffffff7fec <end+0xffffffff7ffeefdc>
  b4:	3331                	addiw	t1,t1,-20 # 1afec <STACK_SIZE+0x1a06c>
  b6:	2d20                	fld	fs0,88(a0)
  b8:	616d                	addi	sp,sp,240
  ba:	6372                	ld	t1,280(sp)
  bc:	3d68                	fld	fa0,248(a0)
  be:	7672                	ld	a2,312(sp)
  c0:	3436                	fld	fs0,360(sp)
  c2:	6d69                	lui	s10,0x1a
  c4:	6661                	lui	a2,0x18
  c6:	6364                	ld	s1,192(a4)
  c8:	7a5f 6369 7273      	.insn	6, 0x727363697a5f
  ce:	2d20                	fld	fs0,88(a0)
  d0:	4f2d2067          	.insn	4, 0x4f2d2067
  d4:	0030                	addi	a2,sp,8
  d6:	6168                	ld	a0,192(a0)
  d8:	646e                	ld	s0,216(sp)
  da:	656c                	ld	a1,200(a0)
  dc:	695f 746e 7265      	.insn	6, 0x7265746e695f
  e2:	7572                	ld	a0,312(sp)
  e4:	7470                	ld	a2,232(s0)
  e6:	6d00                	ld	s0,24(a0)
  e8:	73756163          	bltu	a0,s7,80a <REGBYTES+0x802>
  ec:	0065                	c.nop	25
  ee:	6f6c                	ld	a1,216(a4)
  f0:	676e                	ld	a4,216(sp)
  f2:	6c20                	ld	s0,88(s0)
  f4:	20676e6f          	jal	t3,762fa <STACK_SIZE+0x7537a>
  f8:	6e75                	lui	t3,0x1d
  fa:	6e676973          	csrrsi	s2,0x6e6,14
  fe:	6465                	lui	s0,0x19
 100:	6920                	ld	s0,80(a0)
 102:	746e                	ld	s0,248(sp)
 104:	7500                	ld	s0,40(a0)
 106:	736e                	ld	t1,248(sp)
 108:	6769                	lui	a4,0x1a
 10a:	656e                	ld	a0,216(sp)
 10c:	2064                	fld	fs1,192(s0)
 10e:	72616863          	bltu	sp,t1,83e <REGBYTES+0x836>
 112:	6800                	ld	s0,16(s0)
 114:	6e61                	lui	t3,0x18
 116:	6c64                	ld	s1,216(s0)
 118:	5f65                	li	t5,-7
 11a:	7274                	ld	a3,224(a2)
 11c:	7061                	c.lui	zero,0xffff8
 11e:	7000                	ld	s0,32(s0)
 120:	6972                	ld	s2,280(sp)
 122:	746e                	ld	s0,248(sp)
 124:	695f 6c00 6e6f      	.insn	6, 0x6e6f6c00695f
 12a:	6e692067          	.insn	4, 0x6e692067
 12e:	0074                	addi	a3,sp,12
 130:	5f5f 6975 746e      	.insn	6, 0x746e69755f5f
 136:	3436                	fld	fs0,360(sp)
 138:	745f 7000 6972      	.insn	6, 0x69727000745f
 13e:	746e                	ld	s0,248(sp)
 140:	735f 7300 6f68      	.insn	6, 0x6f687300735f
 146:	7472                	ld	s0,312(sp)
 148:	7520                	ld	s0,104(a0)
 14a:	736e                	ld	t1,248(sp)
 14c:	6769                	lui	a4,0x1a
 14e:	656e                	ld	a0,216(sp)
 150:	2064                	fld	fs1,192(s0)
 152:	6e69                	lui	t3,0x1a
 154:	0074                	addi	a3,sp,12
 156:	6168                	ld	a0,192(a0)
 158:	646e                	ld	s0,216(sp)
 15a:	656c                	ld	a1,200(a0)
 15c:	655f 6378 7065      	.insn	6, 0x70656378655f
 162:	6974                	ld	a3,208(a0)
 164:	73006e6f          	jal	t3,6894 <STACK_SIZE+0x5914>
 168:	6f68                	ld	a0,216(a4)
 16a:	7472                	ld	s0,312(sp)
 16c:	6920                	ld	s0,80(a0)
 16e:	746e                	ld	s0,248(sp)
 170:	7500                	ld	s0,40(a0)
 172:	7261                	lui	tp,0xffff8
 174:	5f74                	lw	a3,124(a4)
 176:	6e69                	lui	t3,0x1a
 178:	7469                	lui	s0,0xffffa
 17a:	5500                	lw	s0,40(a0)
 17c:	5241                	li	tp,-16
 17e:	5f54                	lw	a3,60(a4)
 180:	434c                	lw	a1,4(a4)
 182:	5f52                	lw	t5,52(sp)
 184:	4f50                	lw	a2,28(a4)
 186:	4444                	lw	s1,12(s0)
 188:	5500                	lw	s0,40(a0)
 18a:	5241                	li	tp,-16
 18c:	5f54                	lw	a3,60(a4)
 18e:	534c                	lw	a1,36(a4)
 190:	5f52                	lw	t5,52(sp)
 192:	5f00454f          	.insn	4, 0x5f00454f
 196:	755f 6e69 3374      	.insn	6, 0x33746e69755f
 19c:	5f32                	lw	t5,44(sp)
 19e:	0074                	addi	a3,sp,12
 1a0:	4155                	li	sp,21
 1a2:	5452                	lw	s0,52(sp)
 1a4:	4c5f 5253 445f      	.insn	6, 0x445f52534c5f
 1aa:	0041                	c.nop	16
 1ac:	7270                	ld	a2,224(a2)
 1ae:	6e69                	lui	t3,0x1a
 1b0:	5f74                	lw	a3,124(a4)
 1b2:	0068                	addi	a0,sp,12
 1b4:	6162                	ld	sp,24(sp)
 1b6:	6475                	lui	s0,0x1d
 1b8:	725f 7461 0065      	.insn	6, 0x00657461725f
 1be:	4155                	li	sp,21
 1c0:	5452                	lw	s0,52(sp)
 1c2:	465f 5243 6e00      	.insn	6, 0x6e005243465f
 1c8:	35363173          	csrrc	sp,0x353,a2
 1cc:	3035                	.insn	2, 0x3035
 1ce:	5f61                	li	t5,-8
 1d0:	7570                	ld	a2,232(a0)
 1d2:	6374                	ld	a3,192(a4)
 1d4:	6168                	ld	a0,192(a0)
 1d6:	0072                	c.slli	zero,0x1c
 1d8:	4155                	li	sp,21
 1da:	5452                	lw	s0,52(sp)
 1dc:	4c5f 5253 505f      	.insn	6, 0x505f52534c5f
 1e2:	0045                	c.nop	17
 1e4:	5f5f 6975 746e      	.insn	6, 0x746e69755f5f
 1ea:	5f38                	lw	a4,120(a4)
 1ec:	0074                	addi	a3,sp,12
 1ee:	7270                	ld	a2,224(a2)
 1f0:	6e69                	lui	t3,0x1a
 1f2:	5f74                	lw	a3,124(a4)
 1f4:	41550063          	beq	a0,s5,5f4 <REGBYTES+0x5ec>
 1f8:	5452                	lw	s0,52(sp)
 1fa:	4c5f 5253 455f      	.insn	6, 0x455f52534c5f
 200:	0046                	c.slli	zero,0x11
 202:	4155                	li	sp,21
 204:	5452                	lw	s0,52(sp)
 206:	4c5f 5243 445f      	.insn	6, 0x445f52434c5f
 20c:	414c                	lw	a1,4(a0)
 20e:	0042                	c.slli	zero,0x10
 210:	4155                	li	sp,21
 212:	5452                	lw	s0,52(sp)
 214:	495f 5245 5500      	.insn	6, 0x55005245495f
 21a:	5241                	li	tp,-16
 21c:	5f54                	lw	a3,60(a4)
 21e:	434d                	li	t1,19
 220:	0052                	c.slli	zero,0x14
 222:	6175                	addi	sp,sp,368
 224:	7472                	ld	s0,312(sp)
 226:	5500                	lw	s0,40(a0)
 228:	5241                	li	tp,-16
 22a:	5f54                	lw	a3,60(a4)
 22c:	434c                	lw	a1,4(a4)
 22e:	0052                	c.slli	zero,0x14
 230:	4155                	li	sp,21
 232:	5452                	lw	s0,52(sp)
 234:	525f 5242 5500      	.insn	6, 0x55005242525f
 23a:	5241                	li	tp,-16
 23c:	5f54                	lw	a3,60(a4)
 23e:	534c                	lw	a1,36(a4)
 240:	5f52                	lw	t5,52(sp)
 242:	4942                	lw	s2,16(sp)
 244:	7500                	ld	s0,40(a0)
 246:	7261                	lui	tp,0xffff8
 248:	5f74                	lw	a3,124(a4)
 24a:	7266                	ld	tp,120(sp)
 24c:	7165                	addi	sp,sp,-400
 24e:	5500                	lw	s0,40(a0)
 250:	5241                	li	tp,-16
 252:	5f54                	lw	a3,60(a4)
 254:	434c                	lw	a1,4(a4)
 256:	5f52                	lw	t5,52(sp)
 258:	4238                	lw	a4,64(a2)
 25a:	5449                	li	s0,-14
 25c:	5500                	lw	s0,40(a0)
 25e:	5241                	li	tp,-16
 260:	5f54                	lw	a3,60(a4)
 262:	534c                	lw	a1,36(a4)
 264:	5f52                	lw	t5,52(sp)
 266:	4546                	lw	a0,80(sp)
 268:	5500                	lw	s0,40(a0)
 26a:	5241                	li	tp,-16
 26c:	5f54                	lw	a3,60(a4)
 26e:	534d                	li	t1,-13
 270:	0052                	c.slli	zero,0x14
 272:	4155                	li	sp,21
 274:	5452                	lw	s0,52(sp)
 276:	535f 5243 5500      	.insn	6, 0x55005243535f
 27c:	5241                	li	tp,-16
 27e:	5f54                	lw	a3,60(a4)
 280:	534c                	lw	a1,36(a4)
 282:	0052                	c.slli	zero,0x14
 284:	4155                	li	sp,21
 286:	5452                	lw	s0,52(sp)
 288:	445f 4c4c 5500      	.insn	6, 0x55004c4c445f
 28e:	5241                	li	tp,-16
 290:	5f54                	lw	a3,60(a4)
 292:	4c44                	lw	s1,28(s0)
 294:	004d                	c.nop	19
 296:	6175                	addi	sp,sp,368
 298:	7472                	ld	s0,312(sp)
 29a:	735f 6e65 0064      	.insn	6, 0x00646e65735f
 2a0:	4155                	li	sp,21
 2a2:	5452                	lw	s0,52(sp)
 2a4:	4c5f 5253 525f      	.insn	6, 0x525f52534c5f
 2aa:	0045                	c.nop	17
 2ac:	4155                	li	sp,21
 2ae:	5452                	lw	s0,52(sp)
 2b0:	4c5f 5253 525f      	.insn	6, 0x525f52534c5f
 2b6:	0049                	c.nop	18
 2b8:	6964                	ld	s1,208(a0)
 2ba:	6976                	ld	s2,344(sp)
 2bc:	00726f73          	csrrsi	t5,0x7,4
 2c0:	4155                	li	sp,21
 2c2:	5452                	lw	s0,52(sp)
 2c4:	545f 5248 6d00      	.insn	6, 0x6d005248545f
 2ca:	6961                	lui	s2,0x18
 2cc:	006e                	c.slli	zero,0x1b
 2ce:	6d705f77          	.insn	4, 0x6d705f77
 2d2:	6370                	ld	a2,192(a4)
 2d4:	6766                	ld	a4,88(sp)
 2d6:	0030                	addi	a2,sp,8
 2d8:	5f72                	lw	t5,60(sp)
 2da:	736d                	lui	t1,0xffffb
 2dc:	6174                	ld	a3,192(a0)
 2de:	7574                	ld	a3,232(a0)
 2e0:	69740073          	.insn	4, 0x69740073
 2e4:	656d                	lui	a0,0x1b
 2e6:	5f72                	lw	t5,60(sp)
 2e8:	6e69                	lui	t3,0x1a
 2ea:	7469                	lui	s0,0xffffa
 2ec:	7700                	ld	s0,40(a4)
 2ee:	735f 7461 0070      	.insn	6, 0x00707461735f
 2f4:	656d5f77          	.insn	4, 0x656d5f77
 2f8:	6564                	ld	s1,200(a0)
 2fa:	656c                	ld	a1,200(a0)
 2fc:	5f770067          	jr	1527(a4) # 1a5f7 <STACK_SIZE+0x19677>
 300:	746d                	lui	s0,0xffffb
 302:	6576                	ld	a0,344(sp)
 304:	5f770063          	beq	a4,s7,8e4 <REGBYTES+0x8dc>
 308:	696d                	lui	s2,0x1b
 30a:	6564                	ld	s1,200(a0)
 30c:	656c                	ld	a1,200(a0)
 30e:	5f720067          	jr	1527(tp) # 5f7 <REGBYTES+0x5ef>
 312:	686d                	lui	a6,0x1b
 314:	7261                	lui	tp,0xffff8
 316:	6974                	ld	a3,208(a0)
 318:	0064                	addi	s1,sp,12
 31a:	6d705f77          	.insn	4, 0x6d705f77
 31e:	6170                	ld	a2,192(a0)
 320:	6464                	ld	s1,200(s0)
 322:	3072                	fld	ft0,312(sp)
 324:	7400                	ld	s0,40(s0)
 326:	6172                	ld	sp,280(sp)
 328:	5f70                	lw	a2,124(a4)
 32a:	6e65                	lui	t3,0x19
 32c:	7274                	ld	a3,224(a2)
 32e:	0079                	c.nop	30
 330:	72617473          	csrrci	s0,mhpmevent6h,2
 334:	0074                	addi	a3,sp,12
 336:	736d5f77          	.insn	4, 0x736d5f77
 33a:	6174                	ld	a3,192(a0)
 33c:	7574                	ld	a3,232(a0)
 33e:	5f770073          	.insn	4, 0x5f770073
 342:	7074                	ld	a3,224(s0)
 344:	7700                	ld	s0,40(a4)
 346:	6d5f 7065 0063      	.insn	6, 0x006370656d5f
 34c:	5f72                	lw	t5,60(sp)
 34e:	696d                	lui	s2,0x1b
 350:	0065                	c.nop	25
 352:	696d5f77          	.insn	4, 0x696d5f77
 356:	0065                	c.nop	25
